
ICD_maapealne_robot.elf:     file format elf32-avr

Sections:
Idx Name          Size      VMA       LMA       File off  Algn
  0 .data         0000009c  00800100  0000161a  000016ae  2**0
                  CONTENTS, ALLOC, LOAD, DATA
  1 .text         0000161a  00000000  00000000  00000094  2**1
                  CONTENTS, ALLOC, LOAD, READONLY, CODE
  2 .bss          000000be  0080019c  0080019c  0000174a  2**0
                  ALLOC
  3 .comment      0000005c  00000000  00000000  0000174a  2**0
                  CONTENTS, READONLY
  4 .note.gnu.avr.deviceinfo 00000040  00000000  00000000  000017a8  2**2
                  CONTENTS, READONLY
  5 .debug_aranges 00000290  00000000  00000000  000017e8  2**0
                  CONTENTS, READONLY, DEBUGGING
  6 .debug_info   000029e0  00000000  00000000  00001a78  2**0
                  CONTENTS, READONLY, DEBUGGING
  7 .debug_abbrev 00000a0e  00000000  00000000  00004458  2**0
                  CONTENTS, READONLY, DEBUGGING
  8 .debug_line   00001040  00000000  00000000  00004e66  2**0
                  CONTENTS, READONLY, DEBUGGING
  9 .debug_frame  00000840  00000000  00000000  00005ea8  2**2
                  CONTENTS, READONLY, DEBUGGING
 10 .debug_str    00000ac1  00000000  00000000  000066e8  2**0
                  CONTENTS, READONLY, DEBUGGING
 11 .debug_loc    00002b4c  00000000  00000000  000071a9  2**0
                  CONTENTS, READONLY, DEBUGGING
 12 .debug_ranges 000002e0  00000000  00000000  00009cf5  2**0
                  CONTENTS, READONLY, DEBUGGING

Disassembly of section .text:

00000000 <__vectors>:
       0:	0c 94 be 00 	jmp	0x17c	; 0x17c <__ctors_end>
       4:	0c 94 4a 03 	jmp	0x694	; 0x694 <__vector_1>
       8:	0c 94 65 03 	jmp	0x6ca	; 0x6ca <__vector_2>
       c:	0c 94 db 00 	jmp	0x1b6	; 0x1b6 <__bad_interrupt>
      10:	0c 94 db 00 	jmp	0x1b6	; 0x1b6 <__bad_interrupt>
      14:	0c 94 db 00 	jmp	0x1b6	; 0x1b6 <__bad_interrupt>
      18:	0c 94 db 00 	jmp	0x1b6	; 0x1b6 <__bad_interrupt>
      1c:	0c 94 db 00 	jmp	0x1b6	; 0x1b6 <__bad_interrupt>
      20:	0c 94 db 00 	jmp	0x1b6	; 0x1b6 <__bad_interrupt>
      24:	0c 94 db 00 	jmp	0x1b6	; 0x1b6 <__bad_interrupt>
      28:	0c 94 0f 06 	jmp	0xc1e	; 0xc1e <__vector_10>
      2c:	0c 94 4d 06 	jmp	0xc9a	; 0xc9a <__vector_11>
      30:	0c 94 db 00 	jmp	0x1b6	; 0x1b6 <__bad_interrupt>
      34:	0c 94 db 00 	jmp	0x1b6	; 0x1b6 <__bad_interrupt>
      38:	0c 94 db 00 	jmp	0x1b6	; 0x1b6 <__bad_interrupt>
      3c:	0c 94 db 00 	jmp	0x1b6	; 0x1b6 <__bad_interrupt>
      40:	0c 94 db 00 	jmp	0x1b6	; 0x1b6 <__bad_interrupt>
      44:	0c 94 db 00 	jmp	0x1b6	; 0x1b6 <__bad_interrupt>
      48:	0c 94 db 00 	jmp	0x1b6	; 0x1b6 <__bad_interrupt>
      4c:	0c 94 db 00 	jmp	0x1b6	; 0x1b6 <__bad_interrupt>
      50:	0c 94 db 00 	jmp	0x1b6	; 0x1b6 <__bad_interrupt>
      54:	0c 94 db 00 	jmp	0x1b6	; 0x1b6 <__bad_interrupt>
      58:	0c 94 db 00 	jmp	0x1b6	; 0x1b6 <__bad_interrupt>
      5c:	0c 94 db 00 	jmp	0x1b6	; 0x1b6 <__bad_interrupt>
      60:	0c 94 db 00 	jmp	0x1b6	; 0x1b6 <__bad_interrupt>
      64:	0c 94 db 00 	jmp	0x1b6	; 0x1b6 <__bad_interrupt>
      68:	0c 94 db 00 	jmp	0x1b6	; 0x1b6 <__bad_interrupt>
      6c:	0c 94 db 00 	jmp	0x1b6	; 0x1b6 <__bad_interrupt>
      70:	0c 94 db 00 	jmp	0x1b6	; 0x1b6 <__bad_interrupt>
      74:	0c 94 db 00 	jmp	0x1b6	; 0x1b6 <__bad_interrupt>
      78:	0c 94 db 00 	jmp	0x1b6	; 0x1b6 <__bad_interrupt>
      7c:	0c 94 db 00 	jmp	0x1b6	; 0x1b6 <__bad_interrupt>
      80:	0c 94 db 00 	jmp	0x1b6	; 0x1b6 <__bad_interrupt>
      84:	0c 94 db 00 	jmp	0x1b6	; 0x1b6 <__bad_interrupt>
      88:	0c 94 db 00 	jmp	0x1b6	; 0x1b6 <__bad_interrupt>
      8c:	0c 94 db 00 	jmp	0x1b6	; 0x1b6 <__bad_interrupt>
      90:	0c 94 db 00 	jmp	0x1b6	; 0x1b6 <__bad_interrupt>
      94:	0c 94 db 00 	jmp	0x1b6	; 0x1b6 <__bad_interrupt>
      98:	0c 94 db 00 	jmp	0x1b6	; 0x1b6 <__bad_interrupt>
      9c:	0c 94 db 00 	jmp	0x1b6	; 0x1b6 <__bad_interrupt>
      a0:	0c 94 db 00 	jmp	0x1b6	; 0x1b6 <__bad_interrupt>
      a4:	0c 94 db 00 	jmp	0x1b6	; 0x1b6 <__bad_interrupt>
      a8:	0c 94 db 00 	jmp	0x1b6	; 0x1b6 <__bad_interrupt>

000000ac <__trampolines_end>:
      ac:	00 01       	movw	r0, r0
      ae:	00 00       	nop
      b0:	5f 01       	movw	r10, r30
      b2:	12 00       	.word	0x0012	; ????
      b4:	02 00       	.word	0x0002	; ????
      b6:	00 1c       	adc	r0, r0
      b8:	01 43       	sbci	r16, 0x31	; 49
      ba:	00 03       	mulsu	r16, r16
      bc:	00 00       	nop
      be:	18 01       	movw	r2, r16
      c0:	04 01       	movw	r0, r8
      c2:	03 09       	sbc	r16, r3
      c4:	04 fa       	bst	r0, 4
      c6:	00 1c       	adc	r0, r0
      c8:	02 03       	mulsu	r16, r18
      ca:	09 04       	cpc	r0, r9
      cc:	e4 00       	.word	0x00e4	; ????
      ce:	14 03       	mulsu	r17, r20
      d0:	03 09       	sbc	r16, r3
      d2:	04 d6       	rcall	.+3080   	; 0xcdc <__vector_11+0x42>
      d4:	00 0c       	add	r0, r0

000000d6 <string3>:
      d6:	0c 03 31 00 32 00 33 00 34 00 35 00 00 00           ..1.2.3.4.5...

000000e4 <string2>:
      e4:	14 03 54 00 65 00 73 00 74 00 42 00 65 00 6e 00     ..T.e.s.t.B.e.n.
      f4:	63 00 68 00 00 00                                   c.h...

000000fa <string1>:
      fa:	1c 03 4c 00 61 00 75 00 72 00 69 00 20 00 4d 00     ..L.a.u.r.i. .M.
     10a:	69 00 68 00 6b 00 65 00 6c 00 73 00 00 00           i.h.k.e.l.s...

00000118 <string0>:
     118:	04 03 09 04                                         ....

0000011c <config1_descriptor>:
     11c:	09 02 43 00 02 01 00 c0 32 09 04 00 00 01 02 02     ..C.....2.......
     12c:	01 00 05 24 00 10 01 05 24 01 01 01 04 24 02 06     ...$....$....$..
     13c:	05 24 06 00 01 07 05 82 03 10 00 40 09 04 01 00     .$.........@....
     14c:	02 0a 00 00 00 07 05 03 02 40 00 00 07 05 84 02     .........@......
     15c:	40 00 00                                            @..

0000015f <device_descriptor>:
     15f:	12 01 00 02 02 00 00 10 c0 16 7a 04 00 01 01 02     ..........z.....
     16f:	03 01                                               ..

00000171 <endpoint_config_table>:
     171:	00 01 c1 12 01 80 36 01 81 36 00                    ......6..6.

0000017c <__ctors_end>:
     17c:	11 24       	eor	r1, r1
     17e:	1f be       	out	0x3f, r1	; 63
     180:	cf ef       	ldi	r28, 0xFF	; 255
     182:	d5 e0       	ldi	r29, 0x05	; 5
     184:	de bf       	out	0x3e, r29	; 62
     186:	cd bf       	out	0x3d, r28	; 61

00000188 <__do_copy_data>:
     188:	11 e0       	ldi	r17, 0x01	; 1
     18a:	a0 e0       	ldi	r26, 0x00	; 0
     18c:	b1 e0       	ldi	r27, 0x01	; 1
     18e:	ea e1       	ldi	r30, 0x1A	; 26
     190:	f6 e1       	ldi	r31, 0x16	; 22
     192:	02 c0       	rjmp	.+4      	; 0x198 <__do_copy_data+0x10>
     194:	05 90       	lpm	r0, Z+
     196:	0d 92       	st	X+, r0
     198:	ac 39       	cpi	r26, 0x9C	; 156
     19a:	b1 07       	cpc	r27, r17
     19c:	d9 f7       	brne	.-10     	; 0x194 <__do_copy_data+0xc>

0000019e <__do_clear_bss>:
     19e:	22 e0       	ldi	r18, 0x02	; 2
     1a0:	ac e9       	ldi	r26, 0x9C	; 156
     1a2:	b1 e0       	ldi	r27, 0x01	; 1
     1a4:	01 c0       	rjmp	.+2      	; 0x1a8 <.do_clear_bss_start>

000001a6 <.do_clear_bss_loop>:
     1a6:	1d 92       	st	X+, r1

000001a8 <.do_clear_bss_start>:
     1a8:	aa 35       	cpi	r26, 0x5A	; 90
     1aa:	b2 07       	cpc	r27, r18
     1ac:	e1 f7       	brne	.-8      	; 0x1a6 <.do_clear_bss_loop>
     1ae:	0e 94 29 01 	call	0x252	; 0x252 <main>
     1b2:	0c 94 0b 0b 	jmp	0x1616	; 0x1616 <_exit>

000001b6 <__bad_interrupt>:
     1b6:	0c 94 00 00 	jmp	0	; 0x0 <__vectors>

000001ba <SoftI2CStart>:
	SOFT_I2C_SCL_HIGH;	
		
}
void SoftI2CStart()
{
	SOFT_I2C_SCL_HIGH;
     1ba:	55 98       	cbi	0x0a, 5	; 10
    milliseconds can be achieved.
 */
void
_delay_loop_2(uint16_t __count)
{
	__asm__ volatile (
     1bc:	85 e0       	ldi	r24, 0x05	; 5
     1be:	90 e0       	ldi	r25, 0x00	; 0
     1c0:	fc 01       	movw	r30, r24
     1c2:	31 97       	sbiw	r30, 0x01	; 1
     1c4:	f1 f7       	brne	.-4      	; 0x1c2 <SoftI2CStart+0x8>
	H_DEL;
	
	SOFT_I2C_SDA_LOW;	
     1c6:	53 9a       	sbi	0x0a, 3	; 10
     1c8:	01 97       	sbiw	r24, 0x01	; 1
     1ca:	f1 f7       	brne	.-4      	; 0x1c8 <SoftI2CStart+0xe>
     1cc:	08 95       	ret

000001ce <SoftI2CStop>:
	H_DEL;  	
}

void SoftI2CStop()
{
	 SOFT_I2C_SDA_LOW;
     1ce:	53 9a       	sbi	0x0a, 3	; 10
     1d0:	85 e0       	ldi	r24, 0x05	; 5
     1d2:	90 e0       	ldi	r25, 0x00	; 0
     1d4:	fc 01       	movw	r30, r24
     1d6:	31 97       	sbiw	r30, 0x01	; 1
     1d8:	f1 f7       	brne	.-4      	; 0x1d6 <SoftI2CStop+0x8>
	 H_DEL;
	 SOFT_I2C_SCL_HIGH;
     1da:	55 98       	cbi	0x0a, 5	; 10
     1dc:	e3 e0       	ldi	r30, 0x03	; 3
     1de:	f0 e0       	ldi	r31, 0x00	; 0
     1e0:	31 97       	sbiw	r30, 0x01	; 1
     1e2:	f1 f7       	brne	.-4      	; 0x1e0 <SoftI2CStop+0x12>
	 Q_DEL;
	 SOFT_I2C_SDA_HIGH;
     1e4:	53 98       	cbi	0x0a, 3	; 10
     1e6:	01 97       	sbiw	r24, 0x01	; 1
     1e8:	f1 f7       	brne	.-4      	; 0x1e6 <SoftI2CStop+0x18>
     1ea:	08 95       	ret

000001ec <SoftI2CWriteByte>:
	 H_DEL;
}

uint8_t SoftI2CWriteByte(uint8_t data)
{
     1ec:	98 e0       	ldi	r25, 0x08	; 8
     1ee:	43 e0       	ldi	r20, 0x03	; 3
     1f0:	50 e0       	ldi	r21, 0x00	; 0
     1f2:	25 e0       	ldi	r18, 0x05	; 5
     1f4:	30 e0       	ldi	r19, 0x00	; 0
	 
	 uint8_t i;
	 	
	 for(i=0;i<8;i++)
	 {
		SOFT_I2C_SCL_LOW;
     1f6:	55 9a       	sbi	0x0a, 5	; 10
     1f8:	fa 01       	movw	r30, r20
     1fa:	31 97       	sbiw	r30, 0x01	; 1
     1fc:	f1 f7       	brne	.-4      	; 0x1fa <SoftI2CWriteByte+0xe>
		Q_DEL;
		
		if(data & 0x80)
     1fe:	88 23       	and	r24, r24
     200:	14 f4       	brge	.+4      	; 0x206 <SoftI2CWriteByte+0x1a>
			SOFT_I2C_SDA_HIGH;
     202:	53 98       	cbi	0x0a, 3	; 10
     204:	01 c0       	rjmp	.+2      	; 0x208 <SoftI2CWriteByte+0x1c>
		else
			SOFT_I2C_SDA_LOW;	
     206:	53 9a       	sbi	0x0a, 3	; 10
     208:	f9 01       	movw	r30, r18
     20a:	31 97       	sbiw	r30, 0x01	; 1
     20c:	f1 f7       	brne	.-4      	; 0x20a <SoftI2CWriteByte+0x1e>
		
		H_DEL;
		
		SOFT_I2C_SCL_HIGH;
     20e:	55 98       	cbi	0x0a, 5	; 10
     210:	f9 01       	movw	r30, r18
     212:	31 97       	sbiw	r30, 0x01	; 1
     214:	f1 f7       	brne	.-4      	; 0x212 <SoftI2CWriteByte+0x26>
		H_DEL;
		
		while((SCLPIN & (1<<SCL))==0);
     216:	4d 9b       	sbis	0x09, 5	; 9
     218:	fe cf       	rjmp	.-4      	; 0x216 <SoftI2CWriteByte+0x2a>
			
		data=data<<1;
     21a:	88 0f       	add	r24, r24
     21c:	91 50       	subi	r25, 0x01	; 1
uint8_t SoftI2CWriteByte(uint8_t data)
{
	 
	 uint8_t i;
	 	
	 for(i=0;i<8;i++)
     21e:	59 f7       	brne	.-42     	; 0x1f6 <SoftI2CWriteByte+0xa>
			
		data=data<<1;
	}
	 
	//The 9th clock (ACK Phase)
	SOFT_I2C_SCL_LOW;
     220:	55 9a       	sbi	0x0a, 5	; 10
     222:	83 e0       	ldi	r24, 0x03	; 3
     224:	90 e0       	ldi	r25, 0x00	; 0
     226:	01 97       	sbiw	r24, 0x01	; 1
     228:	f1 f7       	brne	.-4      	; 0x226 <SoftI2CWriteByte+0x3a>
	Q_DEL;
		
	SOFT_I2C_SDA_HIGH;		
     22a:	53 98       	cbi	0x0a, 3	; 10
     22c:	85 e0       	ldi	r24, 0x05	; 5
     22e:	90 e0       	ldi	r25, 0x00	; 0
     230:	fc 01       	movw	r30, r24
     232:	31 97       	sbiw	r30, 0x01	; 1
     234:	f1 f7       	brne	.-4      	; 0x232 <SoftI2CWriteByte+0x46>
	H_DEL;
		
	SOFT_I2C_SCL_HIGH;
     236:	55 98       	cbi	0x0a, 5	; 10
     238:	fc 01       	movw	r30, r24
     23a:	31 97       	sbiw	r30, 0x01	; 1
     23c:	f1 f7       	brne	.-4      	; 0x23a <SoftI2CWriteByte+0x4e>
	H_DEL;	
	
	uint8_t ack=!(SDAPIN & (1<<SDA));
     23e:	29 b1       	in	r18, 0x09	; 9
	
	SOFT_I2C_SCL_LOW;
     240:	55 9a       	sbi	0x0a, 5	; 10
     242:	01 97       	sbiw	r24, 0x01	; 1
     244:	f1 f7       	brne	.-4      	; 0x242 <SoftI2CWriteByte+0x56>
	H_DEL;
		
	SOFT_I2C_SCL_HIGH;
	H_DEL;	
	
	uint8_t ack=!(SDAPIN & (1<<SDA));
     246:	23 fb       	bst	r18, 3
     248:	88 27       	eor	r24, r24
     24a:	80 f9       	bld	r24, 0
	SOFT_I2C_SCL_LOW;
	H_DEL;
	
	return ack;
	 
}
     24c:	91 e0       	ldi	r25, 0x01	; 1
     24e:	89 27       	eor	r24, r25
     250:	08 95       	ret

00000252 <main>:
//Other variables
_Bool controlled_by_remote = 0;

int main(void) {
	//remove clkdiv8
	CLKPR = 0x80;
     252:	e1 e6       	ldi	r30, 0x61	; 97
     254:	f0 e0       	ldi	r31, 0x00	; 0
     256:	80 e8       	ldi	r24, 0x80	; 128
     258:	80 83       	st	Z, r24
	CLKPR = 0x00;
     25a:	10 82       	st	Z, r1
	
	//NUPUTUVASTUS
	//D0 sisendiks ja pull-up sisse
	DDRD &= ~(1 << 0);
     25c:	50 98       	cbi	0x0a, 0	; 10
	PORTD |= (1 << 0);
     25e:	58 9a       	sbi	0x0b, 0	; 11
	//D1 miinusesse
	DDRD |= (1 << 1);
     260:	51 9a       	sbi	0x0a, 1	; 10
	PORTD &= ~(1 << 1);
     262:	59 98       	cbi	0x0b, 1	; 11
	//D2 ohutuse mõttes sisendiks
	DDRD &= ~(1 << 2);
     264:	52 98       	cbi	0x0a, 2	; 10
	DDRE |= (1 << 6);
     266:	6e 9a       	sbi	0x0d, 6	; 13
	
	if((PIND & (1 << 0))){
     268:	48 9b       	sbis	0x09, 0	; 9
     26a:	04 c0       	rjmp	.+8      	; 0x274 <main+0x22>
		//Kui D0 on kõrge (jumperit pole siin)
		controlled_by_remote = 0;
     26c:	10 92 9c 01 	sts	0x019C, r1
		PORTE |= (1 << 6);
     270:	76 9a       	sbi	0x0e, 6	; 14
     272:	03 c0       	rjmp	.+6      	; 0x27a <main+0x28>
	}else{
		//Kui D0 on madal (jumper ühendatud)
		controlled_by_remote = 1;
     274:	81 e0       	ldi	r24, 0x01	; 1
     276:	80 93 9c 01 	sts	0x019C, r24
	}
	
	//init USB
	usb_init();
     27a:	0e 94 52 05 	call	0xaa4	; 0xaa4 <usb_init>
	#else
		//round up by default
		__ticks_dc = (uint32_t)(ceil(fabs(__tmp)));
	#endif

	__builtin_avr_delay_cycles(__ticks_dc);
     27e:	2f ef       	ldi	r18, 0xFF	; 255
     280:	89 e6       	ldi	r24, 0x69	; 105
     282:	98 e1       	ldi	r25, 0x18	; 24
     284:	21 50       	subi	r18, 0x01	; 1
     286:	80 40       	sbci	r24, 0x00	; 0
     288:	90 40       	sbci	r25, 0x00	; 0
     28a:	e1 f7       	brne	.-8      	; 0x284 <main+0x32>
     28c:	00 c0       	rjmp	.+0      	; 0x28e <main+0x3c>
     28e:	00 00       	nop
	//while (!usb_configured());
	_delay_ms(500);
	
	usb_write("init motors...");
     290:	86 e1       	ldi	r24, 0x16	; 22
     292:	91 e0       	ldi	r25, 0x01	; 1
     294:	0e 94 fc 07 	call	0xff8	; 0xff8 <usb_write>
	//motorDriverInit();
	usb_write("Done!\n");
     298:	85 e2       	ldi	r24, 0x25	; 37
     29a:	91 e0       	ldi	r25, 0x01	; 1
     29c:	0e 94 fc 07 	call	0xff8	; 0xff8 <usb_write>
	
	
	//initialize the NRF24L01+ module
	usb_write("init nrf...");
     2a0:	8c e2       	ldi	r24, 0x2C	; 44
     2a2:	91 e0       	ldi	r25, 0x01	; 1
     2a4:	0e 94 fc 07 	call	0xff8	; 0xff8 <usb_write>
	nrf24_init();
     2a8:	0e 94 ae 03 	call	0x75c	; 0x75c <nrf24_init>
	nrf24_config(2, 10);//RF_CH 127 => 2.400128GHz, 10 byte packets
     2ac:	6a e0       	ldi	r22, 0x0A	; 10
     2ae:	82 e0       	ldi	r24, 0x02	; 2
     2b0:	0e 94 80 04 	call	0x900	; 0x900 <nrf24_config>
	nrf24_tx_address(tx_address);
     2b4:	8a e0       	ldi	r24, 0x0A	; 10
     2b6:	91 e0       	ldi	r25, 0x01	; 1
     2b8:	0e 94 21 05 	call	0xa42	; 0xa42 <nrf24_tx_address>
	nrf24_rx_address(controlled_by_remote? rx_address_remote : rx_address);
     2bc:	80 91 9c 01 	lds	r24, 0x019C
     2c0:	81 11       	cpse	r24, r1
     2c2:	03 c0       	rjmp	.+6      	; 0x2ca <main+0x78>
     2c4:	85 e0       	ldi	r24, 0x05	; 5
     2c6:	91 e0       	ldi	r25, 0x01	; 1
     2c8:	02 c0       	rjmp	.+4      	; 0x2ce <main+0x7c>
     2ca:	80 e0       	ldi	r24, 0x00	; 0
     2cc:	91 e0       	ldi	r25, 0x01	; 1
     2ce:	0e 94 10 05 	call	0xa20	; 0xa20 <nrf24_rx_address>
	
	usb_write("Done!\n");
     2d2:	85 e2       	ldi	r24, 0x25	; 37
     2d4:	91 e0       	ldi	r25, 0x01	; 1
     2d6:	0e 94 fc 07 	call	0xff8	; 0xff8 <usb_write>
	
	int16_t failsafe = 0;
     2da:	c1 2c       	mov	r12, r1
     2dc:	d1 2c       	mov	r13, r1
			if (n == sizeof(buf)) {
				if (buf[0] == '?') {
					sprintf(response, "pong (robot 1, NRF: 0xE1\n");
					usb_write(response);
				}else {
					sprintf(response, "got(%d): %s\n", available, buf);
     2de:	0f 2e       	mov	r0, r31
     2e0:	ff e8       	ldi	r31, 0x8F	; 143
     2e2:	2f 2e       	mov	r2, r31
     2e4:	f1 e0       	ldi	r31, 0x01	; 1
     2e6:	3f 2e       	mov	r3, r31
     2e8:	f0 2d       	mov	r31, r0
     2ea:	c7 ea       	ldi	r28, 0xA7	; 167
     2ec:	d1 e0       	ldi	r29, 0x01	; 1
						}
			
						//////////////////////
						usb_write("Received:\n");
						for(int i = 0; i < 6; i++){
							sprintf(response, "%d. val=%d\n", i, data_array[i]);
     2ee:	03 e4       	ldi	r16, 0x43	; 67
     2f0:	11 e0       	ldi	r17, 0x01	; 1
     2f2:	ec 2e       	mov	r14, r28
     2f4:	fd 2e       	mov	r15, r29
						}
						////////////////////////
						if(data_array[3] > 105  ||  data_array[3] < 95){
							//setSpeed(100-data_array[3]);
				
							rpm_to_hold_m1 = (100-data_array[3])*5 * data_array[5]/100;
     2f6:	0f 2e       	mov	r0, r31
     2f8:	f4 e6       	ldi	r31, 0x64	; 100
     2fa:	6f 2e       	mov	r6, r31
     2fc:	71 2c       	mov	r7, r1
     2fe:	f0 2d       	mov	r31, r0
					rpm_to_hold_m2 = (data_array[5]<<8) + data_array[4];
				
					sprintf(response, "kiirused: %d ja %d\n", rpm_to_hold_m1, rpm_to_hold_m2);
					usb_write(response);
				}else{
					sprintf(response, "unknown type: %d\n", data_array[1]);
     300:	0f 2e       	mov	r0, r31
     302:	f3 e6       	ldi	r31, 0x63	; 99
     304:	8f 2e       	mov	r8, r31
     306:	f1 e0       	ldi	r31, 0x01	; 1
     308:	9f 2e       	mov	r9, r31
     30a:	f0 2d       	mov	r31, r0
				if(data_array[1] == 1){
					//Tahetakse sättida mootorite kiiruseid
					rpm_to_hold_m1 = (data_array[3]<<8) + data_array[2];
					rpm_to_hold_m2 = (data_array[5]<<8) + data_array[4];
				
					sprintf(response, "kiirused: %d ja %d\n", rpm_to_hold_m1, rpm_to_hold_m2);
     30c:	0f 2e       	mov	r0, r31
     30e:	ff e4       	ldi	r31, 0x4F	; 79
     310:	4f 2e       	mov	r4, r31
     312:	f1 e0       	ldi	r31, 0x01	; 1
     314:	5f 2e       	mov	r5, r31
     316:	f0 2d       	mov	r31, r0
     318:	61 c1       	rjmp	.+706    	; 0x5dc <main+0x38a>
	usb_write("Done!\n");
	
	int16_t failsafe = 0;
    while (1) {
		while(nrf24_dataReady()){
			if(!controlled_by_remote){
     31a:	80 91 9c 01 	lds	r24, 0x019C
     31e:	81 11       	cpse	r24, r1
     320:	78 c0       	rjmp	.+240    	; 0x412 <main+0x1c0>
				failsafe = 0;
				nrf24_getData(data_array);
     322:	89 ef       	ldi	r24, 0xF9	; 249
     324:	91 e0       	ldi	r25, 0x01	; 1
     326:	0e 94 4f 04 	call	0x89e	; 0x89e <nrf24_getData>
				usb_write("Received:\n");
     32a:	88 e3       	ldi	r24, 0x38	; 56
     32c:	91 e0       	ldi	r25, 0x01	; 1
     32e:	0e 94 fc 07 	call	0xff8	; 0xff8 <usb_write>
     332:	0f 2e       	mov	r0, r31
     334:	f9 ef       	ldi	r31, 0xF9	; 249
     336:	cf 2e       	mov	r12, r31
     338:	f1 e0       	ldi	r31, 0x01	; 1
     33a:	df 2e       	mov	r13, r31
     33c:	f0 2d       	mov	r31, r0
				for(int i = 0; i < 10; i++){
     33e:	a1 2c       	mov	r10, r1
     340:	b1 2c       	mov	r11, r1
					sprintf(response, "%d. val=%d\n", i, data_array[i]);
     342:	d6 01       	movw	r26, r12
     344:	8d 91       	ld	r24, X+
     346:	6d 01       	movw	r12, r26
     348:	1f 92       	push	r1
     34a:	8f 93       	push	r24
     34c:	bf 92       	push	r11
     34e:	af 92       	push	r10
     350:	1f 93       	push	r17
     352:	0f 93       	push	r16
     354:	df 93       	push	r29
     356:	cf 93       	push	r28
     358:	0e 94 33 08 	call	0x1066	; 0x1066 <sprintf>
					usb_write(response);
     35c:	8e 2d       	mov	r24, r14
     35e:	9f 2d       	mov	r25, r15
     360:	0e 94 fc 07 	call	0xff8	; 0xff8 <usb_write>
		while(nrf24_dataReady()){
			if(!controlled_by_remote){
				failsafe = 0;
				nrf24_getData(data_array);
				usb_write("Received:\n");
				for(int i = 0; i < 10; i++){
     364:	ff ef       	ldi	r31, 0xFF	; 255
     366:	af 1a       	sub	r10, r31
     368:	bf 0a       	sbc	r11, r31
     36a:	8d b7       	in	r24, 0x3d	; 61
     36c:	9e b7       	in	r25, 0x3e	; 62
     36e:	08 96       	adiw	r24, 0x08	; 8
     370:	0f b6       	in	r0, 0x3f	; 63
     372:	f8 94       	cli
     374:	9e bf       	out	0x3e, r25	; 62
     376:	0f be       	out	0x3f, r0	; 63
     378:	8d bf       	out	0x3d, r24	; 61
     37a:	9a e0       	ldi	r25, 0x0A	; 10
     37c:	a9 16       	cp	r10, r25
     37e:	b1 04       	cpc	r11, r1
     380:	01 f7       	brne	.-64     	; 0x342 <main+0xf0>
					sprintf(response, "%d. val=%d\n", i, data_array[i]);
					usb_write(response);
				}
				if(data_array[1] == 1){
     382:	80 91 fa 01 	lds	r24, 0x01FA
     386:	81 30       	cpi	r24, 0x01	; 1
     388:	81 f5       	brne	.+96     	; 0x3ea <main+0x198>
					//Tahetakse sättida mootorite kiiruseid
					rpm_to_hold_m1 = (data_array[3]<<8) + data_array[2];
     38a:	e9 ef       	ldi	r30, 0xF9	; 249
     38c:	f1 e0       	ldi	r31, 0x01	; 1
     38e:	83 81       	ldd	r24, Z+3	; 0x03
     390:	90 e0       	ldi	r25, 0x00	; 0
     392:	98 2f       	mov	r25, r24
     394:	88 27       	eor	r24, r24
     396:	22 81       	ldd	r18, Z+2	; 0x02
     398:	82 0f       	add	r24, r18
     39a:	91 1d       	adc	r25, r1
     39c:	90 93 a2 01 	sts	0x01A2, r25
     3a0:	80 93 a1 01 	sts	0x01A1, r24
					rpm_to_hold_m2 = (data_array[5]<<8) + data_array[4];
     3a4:	25 81       	ldd	r18, Z+5	; 0x05
     3a6:	30 e0       	ldi	r19, 0x00	; 0
     3a8:	32 2f       	mov	r19, r18
     3aa:	22 27       	eor	r18, r18
     3ac:	44 81       	ldd	r20, Z+4	; 0x04
     3ae:	24 0f       	add	r18, r20
     3b0:	31 1d       	adc	r19, r1
     3b2:	30 93 08 02 	sts	0x0208, r19
     3b6:	20 93 07 02 	sts	0x0207, r18
				
					sprintf(response, "kiirused: %d ja %d\n", rpm_to_hold_m1, rpm_to_hold_m2);
     3ba:	3f 93       	push	r19
     3bc:	2f 93       	push	r18
     3be:	9f 93       	push	r25
     3c0:	8f 93       	push	r24
     3c2:	5f 92       	push	r5
     3c4:	4f 92       	push	r4
     3c6:	df 93       	push	r29
     3c8:	cf 93       	push	r28
     3ca:	0e 94 33 08 	call	0x1066	; 0x1066 <sprintf>
					usb_write(response);
     3ce:	ce 01       	movw	r24, r28
     3d0:	0e 94 fc 07 	call	0xff8	; 0xff8 <usb_write>
     3d4:	ed b7       	in	r30, 0x3d	; 61
     3d6:	fe b7       	in	r31, 0x3e	; 62
     3d8:	38 96       	adiw	r30, 0x08	; 8
     3da:	0f b6       	in	r0, 0x3f	; 63
     3dc:	f8 94       	cli
     3de:	fe bf       	out	0x3e, r31	; 62
     3e0:	0f be       	out	0x3f, r0	; 63
     3e2:	ed bf       	out	0x3d, r30	; 61
	
	int16_t failsafe = 0;
    while (1) {
		while(nrf24_dataReady()){
			if(!controlled_by_remote){
				failsafe = 0;
     3e4:	c1 2c       	mov	r12, r1
     3e6:	d1 2c       	mov	r13, r1
     3e8:	f9 c0       	rjmp	.+498    	; 0x5dc <main+0x38a>
					rpm_to_hold_m2 = (data_array[5]<<8) + data_array[4];
				
					sprintf(response, "kiirused: %d ja %d\n", rpm_to_hold_m1, rpm_to_hold_m2);
					usb_write(response);
				}else{
					sprintf(response, "unknown type: %d\n", data_array[1]);
     3ea:	1f 92       	push	r1
     3ec:	8f 93       	push	r24
     3ee:	9f 92       	push	r9
     3f0:	8f 92       	push	r8
     3f2:	df 93       	push	r29
     3f4:	cf 93       	push	r28
     3f6:	0e 94 33 08 	call	0x1066	; 0x1066 <sprintf>
					usb_write(response);
     3fa:	ce 01       	movw	r24, r28
     3fc:	0e 94 fc 07 	call	0xff8	; 0xff8 <usb_write>
     400:	0f 90       	pop	r0
     402:	0f 90       	pop	r0
     404:	0f 90       	pop	r0
     406:	0f 90       	pop	r0
     408:	0f 90       	pop	r0
     40a:	0f 90       	pop	r0
	
	int16_t failsafe = 0;
    while (1) {
		while(nrf24_dataReady()){
			if(!controlled_by_remote){
				failsafe = 0;
     40c:	c1 2c       	mov	r12, r1
     40e:	d1 2c       	mov	r13, r1
     410:	e5 c0       	rjmp	.+458    	; 0x5dc <main+0x38a>
				//VANA KOOD
				///////////////////////////////////////
				
			
						failsafe = 0;
						nrf24_getData(data_array);
     412:	89 ef       	ldi	r24, 0xF9	; 249
     414:	91 e0       	ldi	r25, 0x01	; 1
     416:	0e 94 4f 04 	call	0x89e	; 0x89e <nrf24_getData>
						if(data_array[7] & (1 << 4)){
     41a:	80 91 00 02 	lds	r24, 0x0200
     41e:	84 ff       	sbrs	r24, 4
     420:	2c c0       	rjmp	.+88     	; 0x47a <main+0x228>
							//debug_text_counter = 0;
							usb_write("Received:\n");
     422:	88 e3       	ldi	r24, 0x38	; 56
     424:	91 e0       	ldi	r25, 0x01	; 1
     426:	0e 94 fc 07 	call	0xff8	; 0xff8 <usb_write>
     42a:	0f 2e       	mov	r0, r31
     42c:	f9 ef       	ldi	r31, 0xF9	; 249
     42e:	cf 2e       	mov	r12, r31
     430:	f1 e0       	ldi	r31, 0x01	; 1
     432:	df 2e       	mov	r13, r31
     434:	f0 2d       	mov	r31, r0
							for(int i = 0; i < 8; i++){
     436:	a1 2c       	mov	r10, r1
     438:	b1 2c       	mov	r11, r1
								sprintf(response, "%d. val=%d\n", i, data_array[i]);
     43a:	d6 01       	movw	r26, r12
     43c:	8d 91       	ld	r24, X+
     43e:	6d 01       	movw	r12, r26
     440:	1f 92       	push	r1
     442:	8f 93       	push	r24
     444:	bf 92       	push	r11
     446:	af 92       	push	r10
     448:	1f 93       	push	r17
     44a:	0f 93       	push	r16
     44c:	df 93       	push	r29
     44e:	cf 93       	push	r28
     450:	0e 94 33 08 	call	0x1066	; 0x1066 <sprintf>
								usb_write(response);
     454:	8e 2d       	mov	r24, r14
     456:	9f 2d       	mov	r25, r15
     458:	0e 94 fc 07 	call	0xff8	; 0xff8 <usb_write>
						failsafe = 0;
						nrf24_getData(data_array);
						if(data_array[7] & (1 << 4)){
							//debug_text_counter = 0;
							usb_write("Received:\n");
							for(int i = 0; i < 8; i++){
     45c:	ff ef       	ldi	r31, 0xFF	; 255
     45e:	af 1a       	sub	r10, r31
     460:	bf 0a       	sbc	r11, r31
     462:	8d b7       	in	r24, 0x3d	; 61
     464:	9e b7       	in	r25, 0x3e	; 62
     466:	08 96       	adiw	r24, 0x08	; 8
     468:	0f b6       	in	r0, 0x3f	; 63
     46a:	f8 94       	cli
     46c:	9e bf       	out	0x3e, r25	; 62
     46e:	0f be       	out	0x3f, r0	; 63
     470:	8d bf       	out	0x3d, r24	; 61
     472:	98 e0       	ldi	r25, 0x08	; 8
     474:	a9 16       	cp	r10, r25
     476:	b1 04       	cpc	r11, r1
     478:	01 f7       	brne	.-64     	; 0x43a <main+0x1e8>
								usb_write(response);
							}
						}
			
						//////////////////////
						usb_write("Received:\n");
     47a:	88 e3       	ldi	r24, 0x38	; 56
     47c:	91 e0       	ldi	r25, 0x01	; 1
     47e:	0e 94 fc 07 	call	0xff8	; 0xff8 <usb_write>
     482:	0f 2e       	mov	r0, r31
     484:	f9 ef       	ldi	r31, 0xF9	; 249
     486:	cf 2e       	mov	r12, r31
     488:	f1 e0       	ldi	r31, 0x01	; 1
     48a:	df 2e       	mov	r13, r31
     48c:	f0 2d       	mov	r31, r0
						for(int i = 0; i < 6; i++){
     48e:	a1 2c       	mov	r10, r1
     490:	b1 2c       	mov	r11, r1
							sprintf(response, "%d. val=%d\n", i, data_array[i]);
     492:	d6 01       	movw	r26, r12
     494:	8d 91       	ld	r24, X+
     496:	6d 01       	movw	r12, r26
     498:	1f 92       	push	r1
     49a:	8f 93       	push	r24
     49c:	bf 92       	push	r11
     49e:	af 92       	push	r10
     4a0:	1f 93       	push	r17
     4a2:	0f 93       	push	r16
     4a4:	df 93       	push	r29
     4a6:	cf 93       	push	r28
     4a8:	0e 94 33 08 	call	0x1066	; 0x1066 <sprintf>
							usb_write(response);
     4ac:	8e 2d       	mov	r24, r14
     4ae:	9f 2d       	mov	r25, r15
     4b0:	0e 94 fc 07 	call	0xff8	; 0xff8 <usb_write>
							}
						}
			
						//////////////////////
						usb_write("Received:\n");
						for(int i = 0; i < 6; i++){
     4b4:	ff ef       	ldi	r31, 0xFF	; 255
     4b6:	af 1a       	sub	r10, r31
     4b8:	bf 0a       	sbc	r11, r31
     4ba:	8d b7       	in	r24, 0x3d	; 61
     4bc:	9e b7       	in	r25, 0x3e	; 62
     4be:	08 96       	adiw	r24, 0x08	; 8
     4c0:	0f b6       	in	r0, 0x3f	; 63
     4c2:	f8 94       	cli
     4c4:	9e bf       	out	0x3e, r25	; 62
     4c6:	0f be       	out	0x3f, r0	; 63
     4c8:	8d bf       	out	0x3d, r24	; 61
     4ca:	96 e0       	ldi	r25, 0x06	; 6
     4cc:	a9 16       	cp	r10, r25
     4ce:	b1 04       	cpc	r11, r1
     4d0:	01 f7       	brne	.-64     	; 0x492 <main+0x240>
							sprintf(response, "%d. val=%d\n", i, data_array[i]);
							usb_write(response);
						}
						////////////////////////
						if(data_array[3] > 105  ||  data_array[3] < 95){
     4d2:	20 91 fc 01 	lds	r18, 0x01FC
     4d6:	81 ea       	ldi	r24, 0xA1	; 161
     4d8:	82 0f       	add	r24, r18
     4da:	8b 30       	cpi	r24, 0x0B	; 11
     4dc:	08 f4       	brcc	.+2      	; 0x4e0 <main+0x28e>
     4de:	53 c0       	rjmp	.+166    	; 0x586 <main+0x334>
							//setSpeed(100-data_array[3]);
				
							rpm_to_hold_m1 = (100-data_array[3])*5 * data_array[5]/100;
     4e0:	30 e0       	ldi	r19, 0x00	; 0
     4e2:	0f 2e       	mov	r0, r31
     4e4:	f9 ef       	ldi	r31, 0xF9	; 249
     4e6:	cf 2e       	mov	r12, r31
     4e8:	f1 e0       	ldi	r31, 0x01	; 1
     4ea:	df 2e       	mov	r13, r31
     4ec:	f0 2d       	mov	r31, r0
     4ee:	d6 01       	movw	r26, r12
     4f0:	15 96       	adiw	r26, 0x05	; 5
     4f2:	ac 90       	ld	r10, X
     4f4:	b1 2c       	mov	r11, r1
     4f6:	c3 01       	movw	r24, r6
     4f8:	82 1b       	sub	r24, r18
     4fa:	93 0b       	sbc	r25, r19
     4fc:	ac 01       	movw	r20, r24
     4fe:	44 0f       	add	r20, r20
     500:	55 1f       	adc	r21, r21
     502:	44 0f       	add	r20, r20
     504:	55 1f       	adc	r21, r21
     506:	48 0f       	add	r20, r24
     508:	59 1f       	adc	r21, r25
     50a:	4a 9d       	mul	r20, r10
     50c:	c0 01       	movw	r24, r0
     50e:	4b 9d       	mul	r20, r11
     510:	90 0d       	add	r25, r0
     512:	5a 9d       	mul	r21, r10
     514:	90 0d       	add	r25, r0
     516:	11 24       	eor	r1, r1
     518:	b3 01       	movw	r22, r6
     51a:	0e 94 0b 08 	call	0x1016	; 0x1016 <__divmodhi4>
     51e:	fb 01       	movw	r30, r22
     520:	70 93 a2 01 	sts	0x01A2, r23
     524:	60 93 a1 01 	sts	0x01A1, r22
							rpm_to_hold_m2 = (-1)*((int16_t)((100-data_array[3])*5));
     528:	24 56       	subi	r18, 0x64	; 100
     52a:	31 09       	sbc	r19, r1
     52c:	b9 01       	movw	r22, r18
     52e:	66 0f       	add	r22, r22
     530:	77 1f       	adc	r23, r23
     532:	66 0f       	add	r22, r22
     534:	77 1f       	adc	r23, r23
     536:	26 0f       	add	r18, r22
     538:	37 1f       	adc	r19, r23
     53a:	30 93 08 02 	sts	0x0208, r19
     53e:	20 93 07 02 	sts	0x0207, r18
				
							if(data_array[7] & (1 << 4)){
     542:	d6 01       	movw	r26, r12
     544:	17 96       	adiw	r26, 0x07	; 7
     546:	8c 91       	ld	r24, X
     548:	84 ff       	sbrs	r24, 4
     54a:	25 c0       	rjmp	.+74     	; 0x596 <main+0x344>
								rpm_to_hold_m1 += (100-data_array[2])*data_array[5]/70;
     54c:	80 91 fb 01 	lds	r24, 0x01FB
     550:	a3 01       	movw	r20, r6
     552:	48 1b       	sub	r20, r24
     554:	51 09       	sbc	r21, r1
     556:	a4 9e       	mul	r10, r20
     558:	c0 01       	movw	r24, r0
     55a:	a5 9e       	mul	r10, r21
     55c:	90 0d       	add	r25, r0
     55e:	b4 9e       	mul	r11, r20
     560:	90 0d       	add	r25, r0
     562:	11 24       	eor	r1, r1
     564:	66 e4       	ldi	r22, 0x46	; 70
     566:	70 e0       	ldi	r23, 0x00	; 0
     568:	0e 94 0b 08 	call	0x1016	; 0x1016 <__divmodhi4>
     56c:	e6 0f       	add	r30, r22
     56e:	f7 1f       	adc	r31, r23
     570:	f0 93 a2 01 	sts	0x01A2, r31
     574:	e0 93 a1 01 	sts	0x01A1, r30
								rpm_to_hold_m2 += (100-data_array[2])*data_array[5]/70;
     578:	26 0f       	add	r18, r22
     57a:	37 1f       	adc	r19, r23
     57c:	30 93 08 02 	sts	0x0208, r19
     580:	20 93 07 02 	sts	0x0207, r18
     584:	08 c0       	rjmp	.+16     	; 0x596 <main+0x344>
							}
				
				
						}else{
							rpm_to_hold_m1 = 0;
     586:	10 92 a2 01 	sts	0x01A2, r1
     58a:	10 92 a1 01 	sts	0x01A1, r1
							rpm_to_hold_m2 = 0;
     58e:	10 92 08 02 	sts	0x0208, r1
     592:	10 92 07 02 	sts	0x0207, r1
							//setSpeed(0);
						}
			
						//sprintf(response, "spd: %d\n", rpm_to_hold);
						//usb_write(response);
						rpm_to_hold_m1 *= data_array[0];
     596:	80 91 f9 01 	lds	r24, 0x01F9
     59a:	90 e0       	ldi	r25, 0x00	; 0
     59c:	40 91 a1 01 	lds	r20, 0x01A1
     5a0:	50 91 a2 01 	lds	r21, 0x01A2
     5a4:	48 9f       	mul	r20, r24
     5a6:	90 01       	movw	r18, r0
     5a8:	49 9f       	mul	r20, r25
     5aa:	30 0d       	add	r19, r0
     5ac:	58 9f       	mul	r21, r24
     5ae:	30 0d       	add	r19, r0
     5b0:	11 24       	eor	r1, r1
     5b2:	30 93 a2 01 	sts	0x01A2, r19
     5b6:	20 93 a1 01 	sts	0x01A1, r18
						rpm_to_hold_m2 *= data_array[0];
     5ba:	40 91 07 02 	lds	r20, 0x0207
     5be:	50 91 08 02 	lds	r21, 0x0208
     5c2:	48 9f       	mul	r20, r24
     5c4:	90 01       	movw	r18, r0
     5c6:	49 9f       	mul	r20, r25
     5c8:	30 0d       	add	r19, r0
     5ca:	58 9f       	mul	r21, r24
     5cc:	30 0d       	add	r19, r0
     5ce:	11 24       	eor	r1, r1
     5d0:	30 93 08 02 	sts	0x0208, r19
     5d4:	20 93 07 02 	sts	0x0207, r18
				///////////////////////////////////////
				//VANA KOOD
				///////////////////////////////////////
				
			
						failsafe = 0;
     5d8:	c1 2c       	mov	r12, r1
     5da:	d1 2c       	mov	r13, r1
	
	usb_write("Done!\n");
	
	int16_t failsafe = 0;
    while (1) {
		while(nrf24_dataReady()){
     5dc:	0e 94 e7 04 	call	0x9ce	; 0x9ce <nrf24_dataReady>
     5e0:	81 11       	cpse	r24, r1
     5e2:	9b ce       	rjmp	.-714    	; 0x31a <main+0xc8>
				//VANA KOOD
				///////////////////////////////////////
			}
		}
		
		if(failsafe++ < 200){
     5e4:	56 01       	movw	r10, r12
     5e6:	bf ef       	ldi	r27, 0xFF	; 255
     5e8:	ab 1a       	sub	r10, r27
     5ea:	bb 0a       	sbc	r11, r27
     5ec:	e8 ec       	ldi	r30, 0xC8	; 200
     5ee:	ce 16       	cp	r12, r30
     5f0:	d1 04       	cpc	r13, r1
     5f2:	6c f4       	brge	.+26     	; 0x60e <__stack+0xf>
			set_speed_m1(rpm_to_hold_m1);
     5f4:	80 91 a1 01 	lds	r24, 0x01A1
     5f8:	90 91 a2 01 	lds	r25, 0x01A2
     5fc:	0e 94 80 03 	call	0x700	; 0x700 <set_speed_m1>
			set_speed_m2(rpm_to_hold_m2);
     600:	80 91 07 02 	lds	r24, 0x0207
     604:	90 91 08 02 	lds	r25, 0x0208
     608:	0e 94 97 03 	call	0x72e	; 0x72e <set_speed_m2>
     60c:	08 c0       	rjmp	.+16     	; 0x61e <__stack+0x1f>
		}else{
			set_speed_m1(0);
     60e:	80 e0       	ldi	r24, 0x00	; 0
     610:	90 e0       	ldi	r25, 0x00	; 0
     612:	0e 94 80 03 	call	0x700	; 0x700 <set_speed_m1>
			set_speed_m2(0);
     616:	80 e0       	ldi	r24, 0x00	; 0
     618:	90 e0       	ldi	r25, 0x00	; 0
     61a:	0e 94 97 03 	call	0x72e	; 0x72e <set_speed_m2>
		}
		
		uint8_t available = usb_serial_available();
     61e:	0e 94 9a 05 	call	0xb34	; 0xb34 <usb_serial_available>
     622:	d8 2e       	mov	r13, r24
		if (available) {
     624:	88 23       	and	r24, r24
     626:	71 f1       	breq	.+92     	; 0x684 <__stack+0x85>
			uint8_t n = recv_str(buf, sizeof(buf));
     628:	60 e4       	ldi	r22, 0x40	; 64
     62a:	85 e1       	ldi	r24, 0x15	; 21
     62c:	92 e0       	ldi	r25, 0x02	; 2
     62e:	0e 94 d0 07 	call	0xfa0	; 0xfa0 <recv_str>
			if (n == sizeof(buf)) {
     632:	80 34       	cpi	r24, 0x40	; 64
     634:	39 f5       	brne	.+78     	; 0x684 <__stack+0x85>
				if (buf[0] == '?') {
     636:	80 91 15 02 	lds	r24, 0x0215
     63a:	8f 33       	cpi	r24, 0x3F	; 63
     63c:	61 f4       	brne	.+24     	; 0x656 <__stack+0x57>
					sprintf(response, "pong (robot 1, NRF: 0xE1\n");
     63e:	e5 e7       	ldi	r30, 0x75	; 117
     640:	f1 e0       	ldi	r31, 0x01	; 1
     642:	de 01       	movw	r26, r28
     644:	8a e1       	ldi	r24, 0x1A	; 26
     646:	01 90       	ld	r0, Z+
     648:	0d 92       	st	X+, r0
     64a:	8a 95       	dec	r24
     64c:	e1 f7       	brne	.-8      	; 0x646 <__stack+0x47>
					usb_write(response);
     64e:	ce 01       	movw	r24, r28
     650:	0e 94 fc 07 	call	0xff8	; 0xff8 <usb_write>
     654:	17 c0       	rjmp	.+46     	; 0x684 <__stack+0x85>
				}else {
					sprintf(response, "got(%d): %s\n", available, buf);
     656:	85 e1       	ldi	r24, 0x15	; 21
     658:	92 e0       	ldi	r25, 0x02	; 2
     65a:	9f 93       	push	r25
     65c:	8f 93       	push	r24
     65e:	1f 92       	push	r1
     660:	df 92       	push	r13
     662:	3f 92       	push	r3
     664:	2f 92       	push	r2
     666:	df 93       	push	r29
     668:	cf 93       	push	r28
     66a:	0e 94 33 08 	call	0x1066	; 0x1066 <sprintf>
					usb_write(response);
     66e:	ce 01       	movw	r24, r28
     670:	0e 94 fc 07 	call	0xff8	; 0xff8 <usb_write>
     674:	8d b7       	in	r24, 0x3d	; 61
     676:	9e b7       	in	r25, 0x3e	; 62
     678:	08 96       	adiw	r24, 0x08	; 8
     67a:	0f b6       	in	r0, 0x3f	; 63
     67c:	f8 94       	cli
     67e:	9e bf       	out	0x3e, r25	; 62
     680:	0f be       	out	0x3f, r0	; 63
     682:	8d bf       	out	0x3d, r24	; 61
     684:	af e3       	ldi	r26, 0x3F	; 63
     686:	bc e9       	ldi	r27, 0x9C	; 156
     688:	11 97       	sbiw	r26, 0x01	; 1
     68a:	f1 f7       	brne	.-4      	; 0x688 <__stack+0x89>
     68c:	00 c0       	rjmp	.+0      	; 0x68e <__stack+0x8f>
     68e:	00 00       	nop
				//VANA KOOD
				///////////////////////////////////////
			}
		}
		
		if(failsafe++ < 200){
     690:	65 01       	movw	r12, r10
     692:	a4 cf       	rjmp	.-184    	; 0x5dc <main+0x38a>

00000694 <__vector_1>:

void set_speed_m1(int16_t);
void set_speed_m2(int16_t);
void usb_write(const char *str);

ISR(INT0_vect){
     694:	1f 92       	push	r1
     696:	0f 92       	push	r0
     698:	0f b6       	in	r0, 0x3f	; 63
     69a:	0f 92       	push	r0
     69c:	11 24       	eor	r1, r1
     69e:	8f 93       	push	r24
     6a0:	9f 93       	push	r25
// 	if(PIND & (1 << 0)){
// 		usb_write("falling");
// 	}else{
// 		usb_write("rising");
// 	}
	interrupts1++;
     6a2:	80 91 9f 01 	lds	r24, 0x019F
     6a6:	90 91 a0 01 	lds	r25, 0x01A0
     6aa:	01 96       	adiw	r24, 0x01	; 1
     6ac:	90 93 a0 01 	sts	0x01A0, r25
     6b0:	80 93 9f 01 	sts	0x019F, r24
	PORTE ^= (1 << 6);
     6b4:	9e b1       	in	r25, 0x0e	; 14
     6b6:	80 e4       	ldi	r24, 0x40	; 64
     6b8:	89 27       	eor	r24, r25
     6ba:	8e b9       	out	0x0e, r24	; 14
}
     6bc:	9f 91       	pop	r25
     6be:	8f 91       	pop	r24
     6c0:	0f 90       	pop	r0
     6c2:	0f be       	out	0x3f, r0	; 63
     6c4:	0f 90       	pop	r0
     6c6:	1f 90       	pop	r1
     6c8:	18 95       	reti

000006ca <__vector_2>:

ISR(INT1_vect){
     6ca:	1f 92       	push	r1
     6cc:	0f 92       	push	r0
     6ce:	0f b6       	in	r0, 0x3f	; 63
     6d0:	0f 92       	push	r0
     6d2:	11 24       	eor	r1, r1
     6d4:	8f 93       	push	r24
     6d6:	9f 93       	push	r25
	interrupts2++;
     6d8:	80 91 9d 01 	lds	r24, 0x019D
     6dc:	90 91 9e 01 	lds	r25, 0x019E
     6e0:	01 96       	adiw	r24, 0x01	; 1
     6e2:	90 93 9e 01 	sts	0x019E, r25
     6e6:	80 93 9d 01 	sts	0x019D, r24
	PORTE ^= (1 << 6);
     6ea:	9e b1       	in	r25, 0x0e	; 14
     6ec:	80 e4       	ldi	r24, 0x40	; 64
     6ee:	89 27       	eor	r24, r25
     6f0:	8e b9       	out	0x0e, r24	; 14
}
     6f2:	9f 91       	pop	r25
     6f4:	8f 91       	pop	r24
     6f6:	0f 90       	pop	r0
     6f8:	0f be       	out	0x3f, r0	; 63
     6fa:	0f 90       	pop	r0
     6fc:	1f 90       	pop	r1
     6fe:	18 95       	reti

00000700 <set_speed_m1>:
		setSpeed(speed_to_set);
	}*/
	set_speed_m2(speed_to_set_m2);
}

void set_speed_m1(int16_t s){
     700:	cf 93       	push	r28
     702:	df 93       	push	r29
     704:	c8 2f       	mov	r28, r24
     706:	d9 2f       	mov	r29, r25
	SoftI2CStart();
     708:	0e 94 dd 00 	call	0x1ba	; 0x1ba <SoftI2CStart>
	SoftI2CWriteByte(0x29<<1);
     70c:	82 e5       	ldi	r24, 0x52	; 82
     70e:	0e 94 f6 00 	call	0x1ec	; 0x1ec <SoftI2CWriteByte>
	SoftI2CWriteByte(0);
     712:	80 e0       	ldi	r24, 0x00	; 0
     714:	0e 94 f6 00 	call	0x1ec	; 0x1ec <SoftI2CWriteByte>
	SoftI2CWriteByte(s>>8);
     718:	8d 2f       	mov	r24, r29
     71a:	0e 94 f6 00 	call	0x1ec	; 0x1ec <SoftI2CWriteByte>
	SoftI2CWriteByte(s);
     71e:	8c 2f       	mov	r24, r28
     720:	0e 94 f6 00 	call	0x1ec	; 0x1ec <SoftI2CWriteByte>
	SoftI2CStop();
     724:	0e 94 e7 00 	call	0x1ce	; 0x1ce <SoftI2CStop>
}
     728:	df 91       	pop	r29
     72a:	cf 91       	pop	r28
     72c:	08 95       	ret

0000072e <set_speed_m2>:

void set_speed_m2(int16_t s){
     72e:	cf 93       	push	r28
     730:	df 93       	push	r29
     732:	c8 2f       	mov	r28, r24
     734:	d9 2f       	mov	r29, r25
	SoftI2CStart();
     736:	0e 94 dd 00 	call	0x1ba	; 0x1ba <SoftI2CStart>
	SoftI2CWriteByte(0x2A<<1);
     73a:	84 e5       	ldi	r24, 0x54	; 84
     73c:	0e 94 f6 00 	call	0x1ec	; 0x1ec <SoftI2CWriteByte>
	SoftI2CWriteByte(0);
     740:	80 e0       	ldi	r24, 0x00	; 0
     742:	0e 94 f6 00 	call	0x1ec	; 0x1ec <SoftI2CWriteByte>
	SoftI2CWriteByte(s>>8);
     746:	8d 2f       	mov	r24, r29
     748:	0e 94 f6 00 	call	0x1ec	; 0x1ec <SoftI2CWriteByte>
	SoftI2CWriteByte(s);
     74c:	8c 2f       	mov	r24, r28
     74e:	0e 94 f6 00 	call	0x1ec	; 0x1ec <SoftI2CWriteByte>
	SoftI2CStop();
     752:	0e 94 e7 00 	call	0x1ce	; 0x1ce <SoftI2CStop>
}
     756:	df 91       	pop	r29
     758:	cf 91       	pop	r28
     75a:	08 95       	ret

0000075c <nrf24_init>:
uint8_t payload_len;

/* init the hardware pins */
void nrf24_init()
{
	nrf24_setupPins();
     75c:	0e 94 31 05 	call	0xa62	; 0xa62 <nrf24_setupPins>
	nrf24_ce_digitalWrite(LOW);
     760:	80 e0       	ldi	r24, 0x00	; 0
     762:	0e 94 37 05 	call	0xa6e	; 0xa6e <nrf24_ce_digitalWrite>
	nrf24_csn_digitalWrite(HIGH);
     766:	81 e0       	ldi	r24, 0x01	; 1
     768:	0e 94 3d 05 	call	0xa7a	; 0xa7a <nrf24_csn_digitalWrite>
     76c:	08 95       	ret

0000076e <spi_transfer>:
	nrf24_configRegister(CONFIG,nrf24_CONFIG);
}

/* software spi routine */
uint8_t spi_transfer(uint8_t tx)
{
     76e:	ef 92       	push	r14
     770:	ff 92       	push	r15
     772:	1f 93       	push	r17
     774:	cf 93       	push	r28
     776:	df 93       	push	r29
     778:	e8 2e       	mov	r14, r24
	uint8_t i = 0;
	uint8_t rx = 0;

	nrf24_sck_digitalWrite(LOW);
     77a:	80 e0       	ldi	r24, 0x00	; 0
     77c:	0e 94 43 05 	call	0xa86	; 0xa86 <nrf24_sck_digitalWrite>
     780:	c7 e0       	ldi	r28, 0x07	; 7
     782:	d0 e0       	ldi	r29, 0x00	; 0

/* software spi routine */
uint8_t spi_transfer(uint8_t tx)
{
	uint8_t i = 0;
	uint8_t rx = 0;
     784:	10 e0       	ldi	r17, 0x00	; 0
	nrf24_sck_digitalWrite(LOW);

	for(i=0;i<8;i++)
	{

		if(tx & (1<<(7-i)))
     786:	f1 2c       	mov	r15, r1
     788:	97 01       	movw	r18, r14
     78a:	0c 2e       	mov	r0, r28
     78c:	02 c0       	rjmp	.+4      	; 0x792 <spi_transfer+0x24>
     78e:	35 95       	asr	r19
     790:	27 95       	ror	r18
     792:	0a 94       	dec	r0
     794:	e2 f7       	brpl	.-8      	; 0x78e <spi_transfer+0x20>
     796:	20 ff       	sbrs	r18, 0
     798:	04 c0       	rjmp	.+8      	; 0x7a2 <spi_transfer+0x34>
		{
			nrf24_mosi_digitalWrite(HIGH);
     79a:	81 e0       	ldi	r24, 0x01	; 1
     79c:	0e 94 49 05 	call	0xa92	; 0xa92 <nrf24_mosi_digitalWrite>
     7a0:	03 c0       	rjmp	.+6      	; 0x7a8 <spi_transfer+0x3a>
		}
		else
		{
			nrf24_mosi_digitalWrite(LOW);
     7a2:	80 e0       	ldi	r24, 0x00	; 0
     7a4:	0e 94 49 05 	call	0xa92	; 0xa92 <nrf24_mosi_digitalWrite>
		}

		nrf24_sck_digitalWrite(HIGH);
     7a8:	81 e0       	ldi	r24, 0x01	; 1
     7aa:	0e 94 43 05 	call	0xa86	; 0xa86 <nrf24_sck_digitalWrite>
	#else
		//round up by default
		__ticks_dc = (uint32_t)(ceil(fabs(__tmp)));
	#endif

	__builtin_avr_delay_cycles(__ticks_dc);
     7ae:	8a e1       	ldi	r24, 0x1A	; 26
     7b0:	8a 95       	dec	r24
     7b2:	f1 f7       	brne	.-4      	; 0x7b0 <spi_transfer+0x42>
     7b4:	00 c0       	rjmp	.+0      	; 0x7b6 <spi_transfer+0x48>
_delay_us(10); //Added by me
		
		rx = rx << 1;
     7b6:	11 0f       	add	r17, r17
		if(nrf24_miso_digitalRead())
     7b8:	0e 94 4f 05 	call	0xa9e	; 0xa9e <nrf24_miso_digitalRead>
     7bc:	81 11       	cpse	r24, r1
		{
			rx |= 0x01;
     7be:	11 60       	ori	r17, 0x01	; 1
		}

		nrf24_sck_digitalWrite(LOW);
     7c0:	80 e0       	ldi	r24, 0x00	; 0
     7c2:	0e 94 43 05 	call	0xa86	; 0xa86 <nrf24_sck_digitalWrite>
     7c6:	8a e1       	ldi	r24, 0x1A	; 26
     7c8:	8a 95       	dec	r24
     7ca:	f1 f7       	brne	.-4      	; 0x7c8 <spi_transfer+0x5a>
     7cc:	00 c0       	rjmp	.+0      	; 0x7ce <spi_transfer+0x60>
     7ce:	21 97       	sbiw	r28, 0x01	; 1
     7d0:	d8 f6       	brcc	.-74     	; 0x788 <spi_transfer+0x1a>
_delay_us(10); //Added by me
		
	}

	return rx;
}
     7d2:	81 2f       	mov	r24, r17
     7d4:	df 91       	pop	r29
     7d6:	cf 91       	pop	r28
     7d8:	1f 91       	pop	r17
     7da:	ff 90       	pop	r15
     7dc:	ef 90       	pop	r14
     7de:	08 95       	ret

000007e0 <nrf24_getStatus>:
	return 1; /* true */

}

uint8_t nrf24_getStatus()
{
     7e0:	cf 93       	push	r28
	uint8_t rv;
	nrf24_csn_digitalWrite(LOW);
     7e2:	80 e0       	ldi	r24, 0x00	; 0
     7e4:	0e 94 3d 05 	call	0xa7a	; 0xa7a <nrf24_csn_digitalWrite>
	rv = spi_transfer(NOP);
     7e8:	8f ef       	ldi	r24, 0xFF	; 255
     7ea:	0e 94 b7 03 	call	0x76e	; 0x76e <spi_transfer>
     7ee:	c8 2f       	mov	r28, r24
	nrf24_csn_digitalWrite(HIGH);
     7f0:	81 e0       	ldi	r24, 0x01	; 1
     7f2:	0e 94 3d 05 	call	0xa7a	; 0xa7a <nrf24_csn_digitalWrite>
	return rv;
}
     7f6:	8c 2f       	mov	r24, r28
     7f8:	cf 91       	pop	r28
     7fa:	08 95       	ret

000007fc <nrf24_transferSync>:
	return rx;
}

/* send and receive multiple bytes over SPI */
void nrf24_transferSync(uint8_t* dataout,uint8_t* datain,uint8_t len)
{
     7fc:	ef 92       	push	r14
     7fe:	ff 92       	push	r15
     800:	0f 93       	push	r16
     802:	1f 93       	push	r17
     804:	cf 93       	push	r28
     806:	df 93       	push	r29
	uint8_t i;

	for(i=0;i<len;i++)
     808:	44 23       	and	r20, r20
     80a:	a1 f0       	breq	.+40     	; 0x834 <nrf24_transferSync+0x38>
     80c:	ec 01       	movw	r28, r24
     80e:	06 2f       	mov	r16, r22
     810:	17 2f       	mov	r17, r23
     812:	41 50       	subi	r20, 0x01	; 1
     814:	e4 2e       	mov	r14, r20
     816:	f1 2c       	mov	r15, r1
     818:	2f ef       	ldi	r18, 0xFF	; 255
     81a:	e2 1a       	sub	r14, r18
     81c:	f2 0a       	sbc	r15, r18
     81e:	e8 0e       	add	r14, r24
     820:	f9 1e       	adc	r15, r25
	{
		datain[i] = spi_transfer(dataout[i]);
     822:	89 91       	ld	r24, Y+
     824:	0e 94 b7 03 	call	0x76e	; 0x76e <spi_transfer>
     828:	f8 01       	movw	r30, r16
     82a:	81 93       	st	Z+, r24
     82c:	8f 01       	movw	r16, r30
/* send and receive multiple bytes over SPI */
void nrf24_transferSync(uint8_t* dataout,uint8_t* datain,uint8_t len)
{
	uint8_t i;

	for(i=0;i<len;i++)
     82e:	ce 15       	cp	r28, r14
     830:	df 05       	cpc	r29, r15
     832:	b9 f7       	brne	.-18     	; 0x822 <nrf24_transferSync+0x26>
	{
		datain[i] = spi_transfer(dataout[i]);
	}

}
     834:	df 91       	pop	r29
     836:	cf 91       	pop	r28
     838:	1f 91       	pop	r17
     83a:	0f 91       	pop	r16
     83c:	ff 90       	pop	r15
     83e:	ef 90       	pop	r14
     840:	08 95       	ret

00000842 <nrf24_transmitSync>:

/* send multiple bytes over SPI */
void nrf24_transmitSync(uint8_t* dataout,uint8_t len)
{
     842:	0f 93       	push	r16
     844:	1f 93       	push	r17
     846:	cf 93       	push	r28
     848:	df 93       	push	r29
	uint8_t i;
	
	for(i=0;i<len;i++)
     84a:	66 23       	and	r22, r22
     84c:	71 f0       	breq	.+28     	; 0x86a <nrf24_transmitSync+0x28>
     84e:	ec 01       	movw	r28, r24
     850:	61 50       	subi	r22, 0x01	; 1
     852:	06 2f       	mov	r16, r22
     854:	10 e0       	ldi	r17, 0x00	; 0
     856:	0f 5f       	subi	r16, 0xFF	; 255
     858:	1f 4f       	sbci	r17, 0xFF	; 255
     85a:	08 0f       	add	r16, r24
     85c:	19 1f       	adc	r17, r25
	{
		spi_transfer(dataout[i]);
     85e:	89 91       	ld	r24, Y+
     860:	0e 94 b7 03 	call	0x76e	; 0x76e <spi_transfer>
/* send multiple bytes over SPI */
void nrf24_transmitSync(uint8_t* dataout,uint8_t len)
{
	uint8_t i;
	
	for(i=0;i<len;i++)
     864:	c0 17       	cp	r28, r16
     866:	d1 07       	cpc	r29, r17
     868:	d1 f7       	brne	.-12     	; 0x85e <nrf24_transmitSync+0x1c>
	{
		spi_transfer(dataout[i]);
	}

}
     86a:	df 91       	pop	r29
     86c:	cf 91       	pop	r28
     86e:	1f 91       	pop	r17
     870:	0f 91       	pop	r16
     872:	08 95       	ret

00000874 <nrf24_configRegister>:

/* Clocks only one byte into the given nrf24 register */
void nrf24_configRegister(uint8_t reg, uint8_t value)
{
     874:	cf 93       	push	r28
     876:	df 93       	push	r29
     878:	c8 2f       	mov	r28, r24
     87a:	d6 2f       	mov	r29, r22
	nrf24_csn_digitalWrite(LOW);
     87c:	80 e0       	ldi	r24, 0x00	; 0
     87e:	0e 94 3d 05 	call	0xa7a	; 0xa7a <nrf24_csn_digitalWrite>
	spi_transfer(W_REGISTER | (REGISTER_MASK & reg));
     882:	8c 2f       	mov	r24, r28
     884:	8f 71       	andi	r24, 0x1F	; 31
     886:	80 62       	ori	r24, 0x20	; 32
     888:	0e 94 b7 03 	call	0x76e	; 0x76e <spi_transfer>
	spi_transfer(value);
     88c:	8d 2f       	mov	r24, r29
     88e:	0e 94 b7 03 	call	0x76e	; 0x76e <spi_transfer>
	nrf24_csn_digitalWrite(HIGH);
     892:	81 e0       	ldi	r24, 0x01	; 1
     894:	0e 94 3d 05 	call	0xa7a	; 0xa7a <nrf24_csn_digitalWrite>
}
     898:	df 91       	pop	r29
     89a:	cf 91       	pop	r28
     89c:	08 95       	ret

0000089e <nrf24_getData>:
	return status;
}

/* Reads payload bytes into data array */
void nrf24_getData(uint8_t* data)
{
     89e:	cf 93       	push	r28
     8a0:	df 93       	push	r29
     8a2:	ec 01       	movw	r28, r24
	/* Pull down chip select */
	nrf24_csn_digitalWrite(LOW);
     8a4:	80 e0       	ldi	r24, 0x00	; 0
     8a6:	0e 94 3d 05 	call	0xa7a	; 0xa7a <nrf24_csn_digitalWrite>

	/* Send cmd to read rx payload */
	spi_transfer( R_RX_PAYLOAD );
     8aa:	81 e6       	ldi	r24, 0x61	; 97
     8ac:	0e 94 b7 03 	call	0x76e	; 0x76e <spi_transfer>
	
	/* Read payload */
	nrf24_transferSync(data,data,payload_len);
     8b0:	40 91 59 02 	lds	r20, 0x0259
     8b4:	be 01       	movw	r22, r28
     8b6:	ce 01       	movw	r24, r28
     8b8:	0e 94 fe 03 	call	0x7fc	; 0x7fc <nrf24_transferSync>
	
	/* Pull up chip select */
	nrf24_csn_digitalWrite(HIGH);
     8bc:	81 e0       	ldi	r24, 0x01	; 1
     8be:	0e 94 3d 05 	call	0xa7a	; 0xa7a <nrf24_csn_digitalWrite>

	/* Reset status register */
	nrf24_configRegister(STATUS,(1<<RX_DR));
     8c2:	60 e4       	ldi	r22, 0x40	; 64
     8c4:	87 e0       	ldi	r24, 0x07	; 7
     8c6:	0e 94 3a 04 	call	0x874	; 0x874 <nrf24_configRegister>
}
     8ca:	df 91       	pop	r29
     8cc:	cf 91       	pop	r28
     8ce:	08 95       	ret

000008d0 <nrf24_powerUpRx>:
	}
}

void nrf24_powerUpRx()
{
	nrf24_csn_digitalWrite(LOW);
     8d0:	80 e0       	ldi	r24, 0x00	; 0
     8d2:	0e 94 3d 05 	call	0xa7a	; 0xa7a <nrf24_csn_digitalWrite>
	spi_transfer(FLUSH_RX);
     8d6:	82 ee       	ldi	r24, 0xE2	; 226
     8d8:	0e 94 b7 03 	call	0x76e	; 0x76e <spi_transfer>
	nrf24_csn_digitalWrite(HIGH);
     8dc:	81 e0       	ldi	r24, 0x01	; 1
     8de:	0e 94 3d 05 	call	0xa7a	; 0xa7a <nrf24_csn_digitalWrite>

	nrf24_configRegister(STATUS,(1<<RX_DR)|(1<<TX_DS)|(1<<MAX_RT));
     8e2:	60 e7       	ldi	r22, 0x70	; 112
     8e4:	87 e0       	ldi	r24, 0x07	; 7
     8e6:	0e 94 3a 04 	call	0x874	; 0x874 <nrf24_configRegister>

	nrf24_ce_digitalWrite(LOW);
     8ea:	80 e0       	ldi	r24, 0x00	; 0
     8ec:	0e 94 37 05 	call	0xa6e	; 0xa6e <nrf24_ce_digitalWrite>
	nrf24_configRegister(CONFIG,nrf24_CONFIG|((1<<PWR_UP)|(1<<PRIM_RX)));
     8f0:	6b e0       	ldi	r22, 0x0B	; 11
     8f2:	80 e0       	ldi	r24, 0x00	; 0
     8f4:	0e 94 3a 04 	call	0x874	; 0x874 <nrf24_configRegister>
	nrf24_ce_digitalWrite(HIGH);
     8f8:	81 e0       	ldi	r24, 0x01	; 1
     8fa:	0e 94 37 05 	call	0xa6e	; 0xa6e <nrf24_ce_digitalWrite>
     8fe:	08 95       	ret

00000900 <nrf24_config>:

/* configure the module */
void nrf24_config(uint8_t channel, uint8_t pay_length)
{
	/* Use static payload length ... */
	payload_len = pay_length;
     900:	60 93 59 02 	sts	0x0259, r22

	// Set RF channel
	nrf24_configRegister(RF_CH,channel);
     904:	68 2f       	mov	r22, r24
     906:	85 e0       	ldi	r24, 0x05	; 5
     908:	0e 94 3a 04 	call	0x874	; 0x874 <nrf24_configRegister>

	// Set length of incoming payload
	nrf24_configRegister(RX_PW_P0, 0x00); // Auto-ACK pipe ...
     90c:	60 e0       	ldi	r22, 0x00	; 0
     90e:	81 e1       	ldi	r24, 0x11	; 17
     910:	0e 94 3a 04 	call	0x874	; 0x874 <nrf24_configRegister>
	nrf24_configRegister(RX_PW_P1, payload_len); // Data payload pipe
     914:	60 91 59 02 	lds	r22, 0x0259
     918:	82 e1       	ldi	r24, 0x12	; 18
     91a:	0e 94 3a 04 	call	0x874	; 0x874 <nrf24_configRegister>
	nrf24_configRegister(RX_PW_P2, 0x00); // Pipe not used
     91e:	60 e0       	ldi	r22, 0x00	; 0
     920:	83 e1       	ldi	r24, 0x13	; 19
     922:	0e 94 3a 04 	call	0x874	; 0x874 <nrf24_configRegister>
	nrf24_configRegister(RX_PW_P3, 0x00); // Pipe not used
     926:	60 e0       	ldi	r22, 0x00	; 0
     928:	84 e1       	ldi	r24, 0x14	; 20
     92a:	0e 94 3a 04 	call	0x874	; 0x874 <nrf24_configRegister>
	nrf24_configRegister(RX_PW_P4, 0x00); // Pipe not used
     92e:	60 e0       	ldi	r22, 0x00	; 0
     930:	85 e1       	ldi	r24, 0x15	; 21
     932:	0e 94 3a 04 	call	0x874	; 0x874 <nrf24_configRegister>
	nrf24_configRegister(RX_PW_P5, 0x00); // Pipe not used
     936:	60 e0       	ldi	r22, 0x00	; 0
     938:	86 e1       	ldi	r24, 0x16	; 22
     93a:	0e 94 3a 04 	call	0x874	; 0x874 <nrf24_configRegister>

	// 1 Mbps, TX gain: 0dbm
	//nrf24_configRegister(RF_SETUP, (0<<RF_DR)|((0x03)<<RF_PWR));

	// 250 kbps, TX gain: 0dbm
	nrf24_configRegister(RF_SETUP, (4<<RF_DR)|((0x03)<<RF_PWR));
     93e:	66 e2       	ldi	r22, 0x26	; 38
     940:	86 e0       	ldi	r24, 0x06	; 6
     942:	0e 94 3a 04 	call	0x874	; 0x874 <nrf24_configRegister>

	// CRC enable, (old: 1) 2 byte CRC length
	nrf24_configRegister(CONFIG,nrf24_CONFIG | (1 << CRCO));
     946:	6c e0       	ldi	r22, 0x0C	; 12
     948:	80 e0       	ldi	r24, 0x00	; 0
     94a:	0e 94 3a 04 	call	0x874	; 0x874 <nrf24_configRegister>

	// Auto Acknowledgment
	nrf24_configRegister(EN_AA,(1<<ENAA_P0)|(1<<ENAA_P1)|(0<<ENAA_P2)|(0<<ENAA_P3)|(0<<ENAA_P4)|(0<<ENAA_P5));
     94e:	63 e0       	ldi	r22, 0x03	; 3
     950:	81 e0       	ldi	r24, 0x01	; 1
     952:	0e 94 3a 04 	call	0x874	; 0x874 <nrf24_configRegister>

	// Enable RX addresses
	nrf24_configRegister(EN_RXADDR,(1<<ERX_P0)|(1<<ERX_P1)|(0<<ERX_P2)|(0<<ERX_P3)|(0<<ERX_P4)|(0<<ERX_P5));
     956:	63 e0       	ldi	r22, 0x03	; 3
     958:	82 e0       	ldi	r24, 0x02	; 2
     95a:	0e 94 3a 04 	call	0x874	; 0x874 <nrf24_configRegister>

	// Auto retransmit delay: 1000 us and Up to 15 retransmit trials
	nrf24_configRegister(SETUP_RETR,(0x04<<ARD)|(0x0F<<ARC));
     95e:	6f e4       	ldi	r22, 0x4F	; 79
     960:	84 e0       	ldi	r24, 0x04	; 4
     962:	0e 94 3a 04 	call	0x874	; 0x874 <nrf24_configRegister>

	// Dynamic length configurations: No dynamic length
	nrf24_configRegister(DYNPD,(0<<DPL_P0)|(0<<DPL_P1)|(0<<DPL_P2)|(0<<DPL_P3)|(0<<DPL_P4)|(0<<DPL_P5));
     966:	60 e0       	ldi	r22, 0x00	; 0
     968:	8c e1       	ldi	r24, 0x1C	; 28
     96a:	0e 94 3a 04 	call	0x874	; 0x874 <nrf24_configRegister>

	// Start listening
	nrf24_powerUpRx();
     96e:	0e 94 68 04 	call	0x8d0	; 0x8d0 <nrf24_powerUpRx>
     972:	08 95       	ret

00000974 <nrf24_readRegister>:
	nrf24_csn_digitalWrite(HIGH);
}

/* Read single register from nrf24 */
void nrf24_readRegister(uint8_t reg, uint8_t* value, uint8_t len)
{
     974:	0f 93       	push	r16
     976:	1f 93       	push	r17
     978:	cf 93       	push	r28
     97a:	df 93       	push	r29
     97c:	08 2f       	mov	r16, r24
     97e:	eb 01       	movw	r28, r22
     980:	14 2f       	mov	r17, r20
	nrf24_csn_digitalWrite(LOW);
     982:	80 e0       	ldi	r24, 0x00	; 0
     984:	0e 94 3d 05 	call	0xa7a	; 0xa7a <nrf24_csn_digitalWrite>
	spi_transfer(R_REGISTER | (REGISTER_MASK & reg));
     988:	80 2f       	mov	r24, r16
     98a:	8f 71       	andi	r24, 0x1F	; 31
     98c:	0e 94 b7 03 	call	0x76e	; 0x76e <spi_transfer>
	nrf24_transferSync(value,value,len);
     990:	41 2f       	mov	r20, r17
     992:	be 01       	movw	r22, r28
     994:	ce 01       	movw	r24, r28
     996:	0e 94 fe 03 	call	0x7fc	; 0x7fc <nrf24_transferSync>
	nrf24_csn_digitalWrite(HIGH);
     99a:	81 e0       	ldi	r24, 0x01	; 1
     99c:	0e 94 3d 05 	call	0xa7a	; 0xa7a <nrf24_csn_digitalWrite>
}
     9a0:	df 91       	pop	r29
     9a2:	cf 91       	pop	r28
     9a4:	1f 91       	pop	r17
     9a6:	0f 91       	pop	r16
     9a8:	08 95       	ret

000009aa <nrf24_rxFifoEmpty>:
	return !nrf24_rxFifoEmpty();;
}

/* Checks if receive FIFO is empty or not */
uint8_t nrf24_rxFifoEmpty()
{
     9aa:	cf 93       	push	r28
     9ac:	df 93       	push	r29
     9ae:	1f 92       	push	r1
     9b0:	cd b7       	in	r28, 0x3d	; 61
     9b2:	de b7       	in	r29, 0x3e	; 62
	uint8_t fifoStatus;

	nrf24_readRegister(FIFO_STATUS,&fifoStatus,1);
     9b4:	41 e0       	ldi	r20, 0x01	; 1
     9b6:	be 01       	movw	r22, r28
     9b8:	6f 5f       	subi	r22, 0xFF	; 255
     9ba:	7f 4f       	sbci	r23, 0xFF	; 255
     9bc:	87 e1       	ldi	r24, 0x17	; 23
     9be:	0e 94 ba 04 	call	0x974	; 0x974 <nrf24_readRegister>
	
	return (fifoStatus & (1 << RX_EMPTY));
     9c2:	89 81       	ldd	r24, Y+1	; 0x01
}
     9c4:	81 70       	andi	r24, 0x01	; 1
     9c6:	0f 90       	pop	r0
     9c8:	df 91       	pop	r29
     9ca:	cf 91       	pop	r28
     9cc:	08 95       	ret

000009ce <nrf24_dataReady>:
/* Checks if data is available for reading */
/* Returns 1 if data is ready ... */
uint8_t nrf24_dataReady()
{
	// See note in getData() function - just checking RX_DR isn't good enough
	uint8_t status = nrf24_getStatus();
     9ce:	0e 94 f0 03 	call	0x7e0	; 0x7e0 <nrf24_getStatus>

	// We can short circuit on RX_DR, but if it's not set, we still need
	// to check the FIFO for any pending packets
	if ( status & (1 << RX_DR) )
     9d2:	86 fd       	sbrc	r24, 6
     9d4:	07 c0       	rjmp	.+14     	; 0x9e4 <nrf24_dataReady+0x16>
	{
		return 1;
	}

	return !nrf24_rxFifoEmpty();;
     9d6:	0e 94 d5 04 	call	0x9aa	; 0x9aa <nrf24_rxFifoEmpty>
     9da:	91 e0       	ldi	r25, 0x01	; 1
     9dc:	88 23       	and	r24, r24
     9de:	19 f0       	breq	.+6      	; 0x9e6 <nrf24_dataReady+0x18>
     9e0:	90 e0       	ldi	r25, 0x00	; 0
     9e2:	01 c0       	rjmp	.+2      	; 0x9e6 <nrf24_dataReady+0x18>

	// We can short circuit on RX_DR, but if it's not set, we still need
	// to check the FIFO for any pending packets
	if ( status & (1 << RX_DR) )
	{
		return 1;
     9e4:	91 e0       	ldi	r25, 0x01	; 1
	}

	return !nrf24_rxFifoEmpty();;
}
     9e6:	89 2f       	mov	r24, r25
     9e8:	08 95       	ret

000009ea <nrf24_writeRegister>:
	nrf24_csn_digitalWrite(HIGH);
}

/* Write to a single register of nrf24 */
void nrf24_writeRegister(uint8_t reg, uint8_t* value, uint8_t len)
{
     9ea:	0f 93       	push	r16
     9ec:	1f 93       	push	r17
     9ee:	cf 93       	push	r28
     9f0:	df 93       	push	r29
     9f2:	c8 2f       	mov	r28, r24
     9f4:	8b 01       	movw	r16, r22
     9f6:	d4 2f       	mov	r29, r20
	nrf24_csn_digitalWrite(LOW);
     9f8:	80 e0       	ldi	r24, 0x00	; 0
     9fa:	0e 94 3d 05 	call	0xa7a	; 0xa7a <nrf24_csn_digitalWrite>
	spi_transfer(W_REGISTER | (REGISTER_MASK & reg));
     9fe:	8c 2f       	mov	r24, r28
     a00:	8f 71       	andi	r24, 0x1F	; 31
     a02:	80 62       	ori	r24, 0x20	; 32
     a04:	0e 94 b7 03 	call	0x76e	; 0x76e <spi_transfer>
	nrf24_transmitSync(value,len);
     a08:	6d 2f       	mov	r22, r29
     a0a:	c8 01       	movw	r24, r16
     a0c:	0e 94 21 04 	call	0x842	; 0x842 <nrf24_transmitSync>
	nrf24_csn_digitalWrite(HIGH);
     a10:	81 e0       	ldi	r24, 0x01	; 1
     a12:	0e 94 3d 05 	call	0xa7a	; 0xa7a <nrf24_csn_digitalWrite>
     a16:	df 91       	pop	r29
     a18:	cf 91       	pop	r28
     a1a:	1f 91       	pop	r17
     a1c:	0f 91       	pop	r16
     a1e:	08 95       	ret

00000a20 <nrf24_rx_address>:
	nrf24_powerUpRx();
}

/* Set the RX address */
void nrf24_rx_address(uint8_t * adr)
{
     a20:	cf 93       	push	r28
     a22:	df 93       	push	r29
     a24:	ec 01       	movw	r28, r24
	nrf24_ce_digitalWrite(LOW);
     a26:	80 e0       	ldi	r24, 0x00	; 0
     a28:	0e 94 37 05 	call	0xa6e	; 0xa6e <nrf24_ce_digitalWrite>
	nrf24_writeRegister(RX_ADDR_P1,adr,nrf24_ADDR_LEN);
     a2c:	45 e0       	ldi	r20, 0x05	; 5
     a2e:	be 01       	movw	r22, r28
     a30:	8b e0       	ldi	r24, 0x0B	; 11
     a32:	0e 94 f5 04 	call	0x9ea	; 0x9ea <nrf24_writeRegister>
	nrf24_ce_digitalWrite(HIGH);
     a36:	81 e0       	ldi	r24, 0x01	; 1
     a38:	0e 94 37 05 	call	0xa6e	; 0xa6e <nrf24_ce_digitalWrite>
}
     a3c:	df 91       	pop	r29
     a3e:	cf 91       	pop	r28
     a40:	08 95       	ret

00000a42 <nrf24_tx_address>:
	return payload_len;
}

/* Set the TX address */
void nrf24_tx_address(uint8_t* adr)
{
     a42:	cf 93       	push	r28
     a44:	df 93       	push	r29
     a46:	ec 01       	movw	r28, r24
	/* RX_ADDR_P0 must be set to the sending addr for auto ack to work. */
	nrf24_writeRegister(RX_ADDR_P0,adr,nrf24_ADDR_LEN);
     a48:	45 e0       	ldi	r20, 0x05	; 5
     a4a:	bc 01       	movw	r22, r24
     a4c:	8a e0       	ldi	r24, 0x0A	; 10
     a4e:	0e 94 f5 04 	call	0x9ea	; 0x9ea <nrf24_writeRegister>
	nrf24_writeRegister(TX_ADDR,adr,nrf24_ADDR_LEN);
     a52:	45 e0       	ldi	r20, 0x05	; 5
     a54:	be 01       	movw	r22, r28
     a56:	80 e1       	ldi	r24, 0x10	; 16
     a58:	0e 94 f5 04 	call	0x9ea	; 0x9ea <nrf24_writeRegister>
}
     a5c:	df 91       	pop	r29
     a5e:	cf 91       	pop	r28
     a60:	08 95       	ret

00000a62 <nrf24_setupPins>:
#define check_bit(reg,bit) (reg&(1<<bit))

/* ------------------------------------------------------------------------- */
void nrf24_setupPins()
{
	set_bit(DDRB,2); // CE output
     a62:	22 9a       	sbi	0x04, 2	; 4
	set_bit(DDRB,0); // CSN output
     a64:	20 9a       	sbi	0x04, 0	; 4
	set_bit(DDRB,3); // SCK output
     a66:	23 9a       	sbi	0x04, 3	; 4
	set_bit(DDRB,1); // MOSI output
     a68:	21 9a       	sbi	0x04, 1	; 4
	clr_bit(DDRB,7); // MISO input
     a6a:	27 98       	cbi	0x04, 7	; 4
     a6c:	08 95       	ret

00000a6e <nrf24_ce_digitalWrite>:
	
}
/* ------------------------------------------------------------------------- */
void nrf24_ce_digitalWrite(uint8_t state)
{
	if(state)
     a6e:	88 23       	and	r24, r24
     a70:	11 f0       	breq	.+4      	; 0xa76 <nrf24_ce_digitalWrite+0x8>
	{
		set_bit(PORTB,2);
     a72:	2a 9a       	sbi	0x05, 2	; 5
     a74:	08 95       	ret
	}
	else
	{
		clr_bit(PORTB,2);
     a76:	2a 98       	cbi	0x05, 2	; 5
     a78:	08 95       	ret

00000a7a <nrf24_csn_digitalWrite>:
	}
}
/* ------------------------------------------------------------------------- */
void nrf24_csn_digitalWrite(uint8_t state)
{
	if(state)
     a7a:	88 23       	and	r24, r24
     a7c:	11 f0       	breq	.+4      	; 0xa82 <nrf24_csn_digitalWrite+0x8>
	{
		set_bit(PORTB,0);
     a7e:	28 9a       	sbi	0x05, 0	; 5
     a80:	08 95       	ret
	}
	else
	{
		clr_bit(PORTB,0);
     a82:	28 98       	cbi	0x05, 0	; 5
     a84:	08 95       	ret

00000a86 <nrf24_sck_digitalWrite>:
	}
}
/* ------------------------------------------------------------------------- */
void nrf24_sck_digitalWrite(uint8_t state)
{
	if(state)
     a86:	88 23       	and	r24, r24
     a88:	11 f0       	breq	.+4      	; 0xa8e <nrf24_sck_digitalWrite+0x8>
	{
		set_bit(PORTB,3);
     a8a:	2b 9a       	sbi	0x05, 3	; 5
     a8c:	08 95       	ret
	}
	else
	{
		clr_bit(PORTB,3);
     a8e:	2b 98       	cbi	0x05, 3	; 5
     a90:	08 95       	ret

00000a92 <nrf24_mosi_digitalWrite>:
	}
}
/* ------------------------------------------------------------------------- */
void nrf24_mosi_digitalWrite(uint8_t state)
{
	if(state)
     a92:	88 23       	and	r24, r24
     a94:	11 f0       	breq	.+4      	; 0xa9a <nrf24_mosi_digitalWrite+0x8>
	{
		set_bit(PORTB,1);
     a96:	29 9a       	sbi	0x05, 1	; 5
     a98:	08 95       	ret
	}
	else
	{
		clr_bit(PORTB,1);
     a9a:	29 98       	cbi	0x05, 1	; 5
     a9c:	08 95       	ret

00000a9e <nrf24_miso_digitalRead>:
	}
}
/* ------------------------------------------------------------------------- */
uint8_t nrf24_miso_digitalRead()
{
	return check_bit(PINB,7);
     a9e:	83 b1       	in	r24, 0x03	; 3
}
     aa0:	80 78       	andi	r24, 0x80	; 128
     aa2:	08 95       	ret

00000aa4 <usb_init>:
 **************************************************************************/

// initialize USB serial
void usb_init(void)
{
	HW_CONFIG();
     aa4:	81 e0       	ldi	r24, 0x01	; 1
     aa6:	80 93 d7 00 	sts	0x00D7, r24
        USB_FREEZE();				// enable USB
     aaa:	80 ea       	ldi	r24, 0xA0	; 160
     aac:	80 93 d8 00 	sts	0x00D8, r24
        PLL_CONFIG();				// config PLL, 16 MHz xtal
     ab0:	82 e1       	ldi	r24, 0x12	; 18
     ab2:	89 bd       	out	0x29, r24	; 41
        while (!(PLLCSR & (1<<PLOCK))) ;	// wait for PLL lock
     ab4:	09 b4       	in	r0, 0x29	; 41
     ab6:	00 fe       	sbrs	r0, 0
     ab8:	fd cf       	rjmp	.-6      	; 0xab4 <usb_init+0x10>
        USB_CONFIG();				// start USB clock
     aba:	80 e9       	ldi	r24, 0x90	; 144
     abc:	80 93 d8 00 	sts	0x00D8, r24
        UDCON = 0;				// enable attach resistor
     ac0:	10 92 e0 00 	sts	0x00E0, r1
	usb_configuration = 0;
     ac4:	10 92 a6 01 	sts	0x01A6, r1
	cdc_line_rtsdtr = 0;
     ac8:	10 92 a3 01 	sts	0x01A3, r1
        UDIEN = (1<<EORSTE)|(1<<SOFE);
     acc:	8c e0       	ldi	r24, 0x0C	; 12
     ace:	80 93 e2 00 	sts	0x00E2, r24
	sei();
     ad2:	78 94       	sei
     ad4:	08 95       	ret

00000ad6 <usb_serial_getchar>:
	uint8_t c, intr_state;

	// interrupts are disabled so these functions can be
	// used from the main program or interrupt context,
	// even both in the same program!
	intr_state = SREG;
     ad6:	2f b7       	in	r18, 0x3f	; 63
	cli();
     ad8:	f8 94       	cli
	if (!usb_configuration) {
     ada:	80 91 a6 01 	lds	r24, 0x01A6
     ade:	81 11       	cpse	r24, r1
     ae0:	04 c0       	rjmp	.+8      	; 0xaea <usb_serial_getchar+0x14>
		SREG = intr_state;
     ae2:	2f bf       	out	0x3f, r18	; 63
		return -1;
     ae4:	8f ef       	ldi	r24, 0xFF	; 255
     ae6:	9f ef       	ldi	r25, 0xFF	; 255
     ae8:	08 95       	ret
	}
	UENUM = CDC_RX_ENDPOINT;
     aea:	83 e0       	ldi	r24, 0x03	; 3
     aec:	80 93 e9 00 	sts	0x00E9, r24
	retry:
	c = UEINTX;
     af0:	80 91 e8 00 	lds	r24, 0x00E8
	if (!(c & (1<<RWAL))) {
     af4:	85 fd       	sbrc	r24, 5
     af6:	12 c0       	rjmp	.+36     	; 0xb1c <usb_serial_getchar+0x46>
		// no data in buffer
		if (c & (1<<RXOUTI)) {
     af8:	82 fd       	sbrc	r24, 2
     afa:	04 c0       	rjmp	.+8      	; 0xb04 <usb_serial_getchar+0x2e>
     afc:	0b c0       	rjmp	.+22     	; 0xb14 <usb_serial_getchar+0x3e>
     afe:	82 fd       	sbrc	r24, 2
     b00:	04 c0       	rjmp	.+8      	; 0xb0a <usb_serial_getchar+0x34>
     b02:	08 c0       	rjmp	.+16     	; 0xb14 <usb_serial_getchar+0x3e>
			UEINTX = 0x6B;
     b04:	e8 ee       	ldi	r30, 0xE8	; 232
     b06:	f0 e0       	ldi	r31, 0x00	; 0
     b08:	9b e6       	ldi	r25, 0x6B	; 107
     b0a:	90 83       	st	Z, r25
		SREG = intr_state;
		return -1;
	}
	UENUM = CDC_RX_ENDPOINT;
	retry:
	c = UEINTX;
     b0c:	80 81       	ld	r24, Z
	if (!(c & (1<<RWAL))) {
     b0e:	85 ff       	sbrs	r24, 5
     b10:	f6 cf       	rjmp	.-20     	; 0xafe <usb_serial_getchar+0x28>
     b12:	04 c0       	rjmp	.+8      	; 0xb1c <usb_serial_getchar+0x46>
		// no data in buffer
		if (c & (1<<RXOUTI)) {
			UEINTX = 0x6B;
			goto retry;
		}	
		SREG = intr_state;
     b14:	2f bf       	out	0x3f, r18	; 63
		return -1;
     b16:	8f ef       	ldi	r24, 0xFF	; 255
     b18:	9f ef       	ldi	r25, 0xFF	; 255
     b1a:	08 95       	ret
	}
	// take one byte out of the buffer
	c = UEDATX;
     b1c:	80 91 f1 00 	lds	r24, 0x00F1
	// if buffer completely used, release it
	if (!(UEINTX & (1<<RWAL))) UEINTX = 0x6B;
     b20:	90 91 e8 00 	lds	r25, 0x00E8
     b24:	95 fd       	sbrc	r25, 5
     b26:	03 c0       	rjmp	.+6      	; 0xb2e <usb_serial_getchar+0x58>
     b28:	9b e6       	ldi	r25, 0x6B	; 107
     b2a:	90 93 e8 00 	sts	0x00E8, r25
	SREG = intr_state;
     b2e:	2f bf       	out	0x3f, r18	; 63
	return c;
     b30:	90 e0       	ldi	r25, 0x00	; 0
}
     b32:	08 95       	ret

00000b34 <usb_serial_available>:
// number of bytes available in the receive buffer
uint8_t usb_serial_available(void)
{
	uint8_t n=0, i, intr_state;

	intr_state = SREG;
     b34:	9f b7       	in	r25, 0x3f	; 63
	cli();
     b36:	f8 94       	cli
	if (usb_configuration) {
     b38:	80 91 a6 01 	lds	r24, 0x01A6
     b3c:	88 23       	and	r24, r24
     b3e:	89 f0       	breq	.+34     	; 0xb62 <usb_serial_available+0x2e>
		UENUM = CDC_RX_ENDPOINT;
     b40:	83 e0       	ldi	r24, 0x03	; 3
     b42:	80 93 e9 00 	sts	0x00E9, r24
		n = UEBCLX;
     b46:	80 91 f2 00 	lds	r24, 0x00F2
		if (!n) {
     b4a:	81 11       	cpse	r24, r1
     b4c:	0b c0       	rjmp	.+22     	; 0xb64 <usb_serial_available+0x30>
			i = UEINTX;
     b4e:	20 91 e8 00 	lds	r18, 0x00E8
			if (i & (1<<RXOUTI) && !(i & (1<<RWAL))) UEINTX = 0x6B;
     b52:	22 ff       	sbrs	r18, 2
     b54:	07 c0       	rjmp	.+14     	; 0xb64 <usb_serial_available+0x30>
     b56:	25 fd       	sbrc	r18, 5
     b58:	05 c0       	rjmp	.+10     	; 0xb64 <usb_serial_available+0x30>
     b5a:	2b e6       	ldi	r18, 0x6B	; 107
     b5c:	20 93 e8 00 	sts	0x00E8, r18
     b60:	01 c0       	rjmp	.+2      	; 0xb64 <usb_serial_available+0x30>
}

// number of bytes available in the receive buffer
uint8_t usb_serial_available(void)
{
	uint8_t n=0, i, intr_state;
     b62:	80 e0       	ldi	r24, 0x00	; 0
		if (!n) {
			i = UEINTX;
			if (i & (1<<RXOUTI) && !(i & (1<<RWAL))) UEINTX = 0x6B;
		}
	}
	SREG = intr_state;
     b64:	9f bf       	out	0x3f, r25	; 63
	return n;
}
     b66:	08 95       	ret

00000b68 <usb_serial_putchar>:
	}
}

// transmit a character.  0 returned on success, -1 on error
int8_t usb_serial_putchar(uint8_t c)
{
     b68:	cf 93       	push	r28
     b6a:	df 93       	push	r29
	uint8_t timeout, intr_state;

	// if we're not online (enumerated and configured), error
	if (!usb_configuration) return -1;
     b6c:	90 91 a6 01 	lds	r25, 0x01A6
     b70:	99 23       	and	r25, r25
     b72:	09 f4       	brne	.+2      	; 0xb76 <usb_serial_putchar+0xe>
     b74:	4c c0       	rjmp	.+152    	; 0xc0e <usb_serial_putchar+0xa6>
	// interrupts are disabled so these functions can be
	// used from the main program or interrupt context,
	// even both in the same program!
	intr_state = SREG;
     b76:	9f b7       	in	r25, 0x3f	; 63
	cli();
     b78:	f8 94       	cli
	UENUM = CDC_TX_ENDPOINT;
     b7a:	24 e0       	ldi	r18, 0x04	; 4
     b7c:	20 93 e9 00 	sts	0x00E9, r18
	// if we gave up due to timeout before, don't wait again
	if (transmit_previous_timeout) {
     b80:	20 91 a4 01 	lds	r18, 0x01A4
     b84:	22 23       	and	r18, r18
     b86:	49 f0       	breq	.+18     	; 0xb9a <usb_serial_putchar+0x32>
		if (!(UEINTX & (1<<RWAL))) {
     b88:	20 91 e8 00 	lds	r18, 0x00E8
     b8c:	25 fd       	sbrc	r18, 5
     b8e:	03 c0       	rjmp	.+6      	; 0xb96 <usb_serial_putchar+0x2e>
			SREG = intr_state;
     b90:	9f bf       	out	0x3f, r25	; 63
			
			return -1;
     b92:	8f ef       	ldi	r24, 0xFF	; 255
     b94:	41 c0       	rjmp	.+130    	; 0xc18 <usb_serial_putchar+0xb0>
		}
		transmit_previous_timeout = 0;
     b96:	10 92 a4 01 	sts	0x01A4, r1
	}
	// wait for the FIFO to be ready to accept data
	timeout = UDFNUML + TRANSMIT_TIMEOUT;
     b9a:	30 91 e4 00 	lds	r19, 0x00E4
     b9e:	37 5e       	subi	r19, 0xE7	; 231
	while (1) {
		// are we ready to transmit?
		if (UEINTX & (1<<RWAL)) break;
     ba0:	20 91 e8 00 	lds	r18, 0x00E8
     ba4:	25 fd       	sbrc	r18, 5
     ba6:	24 c0       	rjmp	.+72     	; 0xbf0 <usb_serial_putchar+0x88>
		SREG = intr_state;
     ba8:	9f bf       	out	0x3f, r25	; 63
		// have we waited too long?  This happens if the user
		// is not running an application that is listening
		if (UDFNUML == timeout) {
     baa:	90 91 e4 00 	lds	r25, 0x00E4
     bae:	93 17       	cp	r25, r19
     bb0:	81 f0       	breq	.+32     	; 0xbd2 <usb_serial_putchar+0x6a>
			transmit_previous_timeout = 1;
			return -1;
		}
		// has the USB gone offline?
		if (!usb_configuration) return -1;
     bb2:	90 91 a6 01 	lds	r25, 0x01A6
     bb6:	99 23       	and	r25, r25
     bb8:	61 f1       	breq	.+88     	; 0xc12 <usb_serial_putchar+0xaa>
		// get ready to try checking again
		intr_state = SREG;
		cli();
		UENUM = CDC_TX_ENDPOINT;
     bba:	a9 ee       	ldi	r26, 0xE9	; 233
     bbc:	b0 e0       	ldi	r27, 0x00	; 0
     bbe:	44 e0       	ldi	r20, 0x04	; 4
	}
	// wait for the FIFO to be ready to accept data
	timeout = UDFNUML + TRANSMIT_TIMEOUT;
	while (1) {
		// are we ready to transmit?
		if (UEINTX & (1<<RWAL)) break;
     bc0:	e8 ee       	ldi	r30, 0xE8	; 232
     bc2:	f0 e0       	ldi	r31, 0x00	; 0
		SREG = intr_state;
		// have we waited too long?  This happens if the user
		// is not running an application that is listening
		if (UDFNUML == timeout) {
     bc4:	c4 ee       	ldi	r28, 0xE4	; 228
     bc6:	d0 e0       	ldi	r29, 0x00	; 0
     bc8:	0d c0       	rjmp	.+26     	; 0xbe4 <usb_serial_putchar+0x7c>
	// wait for the FIFO to be ready to accept data
	timeout = UDFNUML + TRANSMIT_TIMEOUT;
	while (1) {
		// are we ready to transmit?
		if (UEINTX & (1<<RWAL)) break;
		SREG = intr_state;
     bca:	9f bf       	out	0x3f, r25	; 63
		// have we waited too long?  This happens if the user
		// is not running an application that is listening
		if (UDFNUML == timeout) {
     bcc:	98 81       	ld	r25, Y
     bce:	93 13       	cpse	r25, r19
     bd0:	05 c0       	rjmp	.+10     	; 0xbdc <usb_serial_putchar+0x74>
			transmit_previous_timeout = 1;
     bd2:	81 e0       	ldi	r24, 0x01	; 1
     bd4:	80 93 a4 01 	sts	0x01A4, r24
			return -1;
     bd8:	8f ef       	ldi	r24, 0xFF	; 255
     bda:	1e c0       	rjmp	.+60     	; 0xc18 <usb_serial_putchar+0xb0>
		}
		// has the USB gone offline?
		if (!usb_configuration) return -1;
     bdc:	90 91 a6 01 	lds	r25, 0x01A6
     be0:	99 23       	and	r25, r25
     be2:	c9 f0       	breq	.+50     	; 0xc16 <usb_serial_putchar+0xae>
		// get ready to try checking again
		intr_state = SREG;
     be4:	9f b7       	in	r25, 0x3f	; 63
		cli();
     be6:	f8 94       	cli
		UENUM = CDC_TX_ENDPOINT;
     be8:	4c 93       	st	X, r20
	}
	// wait for the FIFO to be ready to accept data
	timeout = UDFNUML + TRANSMIT_TIMEOUT;
	while (1) {
		// are we ready to transmit?
		if (UEINTX & (1<<RWAL)) break;
     bea:	20 81       	ld	r18, Z
     bec:	25 ff       	sbrs	r18, 5
     bee:	ed cf       	rjmp	.-38     	; 0xbca <usb_serial_putchar+0x62>
		intr_state = SREG;
		cli();
		UENUM = CDC_TX_ENDPOINT;
	}
	// actually write the byte into the FIFO
	UEDATX = c;
     bf0:	80 93 f1 00 	sts	0x00F1, r24
	// if this completed a packet, transmit it now!
	if (!(UEINTX & (1<<RWAL))) UEINTX = 0x3A;
     bf4:	80 91 e8 00 	lds	r24, 0x00E8
     bf8:	85 fd       	sbrc	r24, 5
     bfa:	03 c0       	rjmp	.+6      	; 0xc02 <usb_serial_putchar+0x9a>
     bfc:	8a e3       	ldi	r24, 0x3A	; 58
     bfe:	80 93 e8 00 	sts	0x00E8, r24
	transmit_flush_timer = TRANSMIT_FLUSH_TIMEOUT;
     c02:	85 e0       	ldi	r24, 0x05	; 5
     c04:	80 93 a5 01 	sts	0x01A5, r24
	SREG = intr_state;
     c08:	9f bf       	out	0x3f, r25	; 63
	return 0;
     c0a:	80 e0       	ldi	r24, 0x00	; 0
     c0c:	05 c0       	rjmp	.+10     	; 0xc18 <usb_serial_putchar+0xb0>
int8_t usb_serial_putchar(uint8_t c)
{
	uint8_t timeout, intr_state;

	// if we're not online (enumerated and configured), error
	if (!usb_configuration) return -1;
     c0e:	8f ef       	ldi	r24, 0xFF	; 255
     c10:	03 c0       	rjmp	.+6      	; 0xc18 <usb_serial_putchar+0xb0>
		if (UDFNUML == timeout) {
			transmit_previous_timeout = 1;
			return -1;
		}
		// has the USB gone offline?
		if (!usb_configuration) return -1;
     c12:	8f ef       	ldi	r24, 0xFF	; 255
     c14:	01 c0       	rjmp	.+2      	; 0xc18 <usb_serial_putchar+0xb0>
     c16:	8f ef       	ldi	r24, 0xFF	; 255
	// if this completed a packet, transmit it now!
	if (!(UEINTX & (1<<RWAL))) UEINTX = 0x3A;
	transmit_flush_timer = TRANSMIT_FLUSH_TIMEOUT;
	SREG = intr_state;
	return 0;
}
     c18:	df 91       	pop	r29
     c1a:	cf 91       	pop	r28
     c1c:	08 95       	ret

00000c1e <__vector_10>:

// USB Device Interrupt - handle all device-level events
// the transmit buffer flushing is triggered by the start of frame
//
ISR(USB_GEN_vect)
{
     c1e:	1f 92       	push	r1
     c20:	0f 92       	push	r0
     c22:	0f b6       	in	r0, 0x3f	; 63
     c24:	0f 92       	push	r0
     c26:	11 24       	eor	r1, r1
     c28:	8f 93       	push	r24
     c2a:	9f 93       	push	r25
     c2c:	ef 93       	push	r30
     c2e:	ff 93       	push	r31
	uint8_t intbits, t;

        intbits = UDINT;
     c30:	e1 ee       	ldi	r30, 0xE1	; 225
     c32:	f0 e0       	ldi	r31, 0x00	; 0
     c34:	80 81       	ld	r24, Z
        UDINT = 0;
     c36:	10 82       	st	Z, r1
        if (intbits & (1<<EORSTI)) {
     c38:	83 ff       	sbrs	r24, 3
     c3a:	11 c0       	rjmp	.+34     	; 0xc5e <__vector_10+0x40>
		UENUM = 0;
     c3c:	10 92 e9 00 	sts	0x00E9, r1
		UECONX = 1;
     c40:	91 e0       	ldi	r25, 0x01	; 1
     c42:	90 93 eb 00 	sts	0x00EB, r25
		UECFG0X = EP_TYPE_CONTROL;
     c46:	10 92 ec 00 	sts	0x00EC, r1
		UECFG1X = EP_SIZE(ENDPOINT0_SIZE) | EP_SINGLE_BUFFER;
     c4a:	92 e1       	ldi	r25, 0x12	; 18
     c4c:	90 93 ed 00 	sts	0x00ED, r25
		UEIENX = (1<<RXSTPE);
     c50:	98 e0       	ldi	r25, 0x08	; 8
     c52:	90 93 f0 00 	sts	0x00F0, r25
		usb_configuration = 0;
     c56:	10 92 a6 01 	sts	0x01A6, r1
		cdc_line_rtsdtr = 0;
     c5a:	10 92 a3 01 	sts	0x01A3, r1
        }
	if (intbits & (1<<SOFI)) {
     c5e:	82 ff       	sbrs	r24, 2
     c60:	13 c0       	rjmp	.+38     	; 0xc88 <__vector_10+0x6a>
		if (usb_configuration) {
     c62:	80 91 a6 01 	lds	r24, 0x01A6
     c66:	88 23       	and	r24, r24
     c68:	79 f0       	breq	.+30     	; 0xc88 <__vector_10+0x6a>
			t = transmit_flush_timer;
     c6a:	80 91 a5 01 	lds	r24, 0x01A5
			if (t) {
     c6e:	88 23       	and	r24, r24
     c70:	59 f0       	breq	.+22     	; 0xc88 <__vector_10+0x6a>
				transmit_flush_timer = --t;
     c72:	81 50       	subi	r24, 0x01	; 1
     c74:	80 93 a5 01 	sts	0x01A5, r24
				if (!t) {
     c78:	81 11       	cpse	r24, r1
     c7a:	06 c0       	rjmp	.+12     	; 0xc88 <__vector_10+0x6a>
					UENUM = CDC_TX_ENDPOINT;
     c7c:	84 e0       	ldi	r24, 0x04	; 4
     c7e:	80 93 e9 00 	sts	0x00E9, r24
					UEINTX = 0x3A;
     c82:	8a e3       	ldi	r24, 0x3A	; 58
     c84:	80 93 e8 00 	sts	0x00E8, r24
				}
			}
		}
	}
}
     c88:	ff 91       	pop	r31
     c8a:	ef 91       	pop	r30
     c8c:	9f 91       	pop	r25
     c8e:	8f 91       	pop	r24
     c90:	0f 90       	pop	r0
     c92:	0f be       	out	0x3f, r0	; 63
     c94:	0f 90       	pop	r0
     c96:	1f 90       	pop	r1
     c98:	18 95       	reti

00000c9a <__vector_11>:
// USB Endpoint Interrupt - endpoint 0 is handled here.  The
// other endpoints are manipulated by the user-callable
// functions, and the start-of-frame interrupt.
//
ISR(USB_COM_vect)
{
     c9a:	1f 92       	push	r1
     c9c:	0f 92       	push	r0
     c9e:	0f b6       	in	r0, 0x3f	; 63
     ca0:	0f 92       	push	r0
     ca2:	11 24       	eor	r1, r1
     ca4:	0f 93       	push	r16
     ca6:	1f 93       	push	r17
     ca8:	2f 93       	push	r18
     caa:	3f 93       	push	r19
     cac:	4f 93       	push	r20
     cae:	5f 93       	push	r21
     cb0:	6f 93       	push	r22
     cb2:	7f 93       	push	r23
     cb4:	8f 93       	push	r24
     cb6:	9f 93       	push	r25
     cb8:	af 93       	push	r26
     cba:	bf 93       	push	r27
     cbc:	cf 93       	push	r28
     cbe:	df 93       	push	r29
     cc0:	ef 93       	push	r30
     cc2:	ff 93       	push	r31
	uint16_t wLength;
	uint16_t desc_val;
	const uint8_t *desc_addr;
	uint8_t	desc_length;

        UENUM = 0;
     cc4:	10 92 e9 00 	sts	0x00E9, r1
        intbits = UEINTX;
     cc8:	80 91 e8 00 	lds	r24, 0x00E8
        if (intbits & (1<<RXSTPI)) {
     ccc:	83 ff       	sbrs	r24, 3
     cce:	4c c1       	rjmp	.+664    	; 0xf68 <__vector_11+0x2ce>
                bmRequestType = UEDATX;
     cd0:	e1 ef       	ldi	r30, 0xF1	; 241
     cd2:	f0 e0       	ldi	r31, 0x00	; 0
     cd4:	60 81       	ld	r22, Z
                bRequest = UEDATX;
     cd6:	80 81       	ld	r24, Z
                wValue = UEDATX;
     cd8:	20 81       	ld	r18, Z
                wValue |= (UEDATX << 8);
     cda:	90 81       	ld	r25, Z
     cdc:	30 e0       	ldi	r19, 0x00	; 0
     cde:	39 2b       	or	r19, r25
                wIndex = UEDATX;
     ce0:	40 81       	ld	r20, Z
                wIndex |= (UEDATX << 8);
     ce2:	90 81       	ld	r25, Z
     ce4:	50 e0       	ldi	r21, 0x00	; 0
     ce6:	59 2b       	or	r21, r25
                wLength = UEDATX;
     ce8:	70 81       	ld	r23, Z
                wLength |= (UEDATX << 8);
     cea:	c0 81       	ld	r28, Z
                UEINTX = ~((1<<RXSTPI) | (1<<RXOUTI) | (1<<TXINI));
     cec:	92 ef       	ldi	r25, 0xF2	; 242
     cee:	90 93 e8 00 	sts	0x00E8, r25
                if (bRequest == GET_DESCRIPTOR) {
     cf2:	86 30       	cpi	r24, 0x06	; 6
     cf4:	09 f0       	breq	.+2      	; 0xcf8 <__vector_11+0x5e>
     cf6:	58 c0       	rjmp	.+176    	; 0xda8 <__vector_11+0x10e>
     cf8:	04 c0       	rjmp	.+8      	; 0xd02 <__vector_11+0x68>
			list = (const uint8_t *)descriptor_list;
			for (i=0; ; i++) {
				if (i >= NUM_DESC_LIST) {
					UECONX = (1<<STALLRQ)|(1<<EPEN);  //stall
     cfa:	81 e2       	ldi	r24, 0x21	; 33
     cfc:	80 93 eb 00 	sts	0x00EB, r24
					return;
     d00:	3a c1       	rjmp	.+628    	; 0xf76 <__vector_11+0x2dc>
     d02:	66 e0       	ldi	r22, 0x06	; 6
     d04:	8c ea       	ldi	r24, 0xAC	; 172
     d06:	90 e0       	ldi	r25, 0x00	; 0
				}
				desc_val = pgm_read_word(list);
     d08:	fc 01       	movw	r30, r24
     d0a:	a5 91       	lpm	r26, Z+
     d0c:	b4 91       	lpm	r27, Z
				if (desc_val != wValue) {
     d0e:	2a 17       	cp	r18, r26
     d10:	3b 07       	cpc	r19, r27
     d12:	11 f0       	breq	.+4      	; 0xd18 <__vector_11+0x7e>
					list += sizeof(struct descriptor_list_struct);
     d14:	07 96       	adiw	r24, 0x07	; 7
					continue;
     d16:	23 c0       	rjmp	.+70     	; 0xd5e <__vector_11+0xc4>
				}
				list += 2;
     d18:	fc 01       	movw	r30, r24
     d1a:	32 96       	adiw	r30, 0x02	; 2
				desc_val = pgm_read_word(list);
     d1c:	a5 91       	lpm	r26, Z+
     d1e:	b4 91       	lpm	r27, Z
				if (desc_val != wIndex) {
     d20:	4a 17       	cp	r20, r26
     d22:	5b 07       	cpc	r21, r27
     d24:	11 f0       	breq	.+4      	; 0xd2a <__vector_11+0x90>
					list += sizeof(struct descriptor_list_struct)-2;
     d26:	07 96       	adiw	r24, 0x07	; 7
					continue;
     d28:	1a c0       	rjmp	.+52     	; 0xd5e <__vector_11+0xc4>
				}
				list += 2;
     d2a:	fc 01       	movw	r30, r24
     d2c:	34 96       	adiw	r30, 0x04	; 4
				desc_addr = (const uint8_t *)pgm_read_word(list);
     d2e:	45 91       	lpm	r20, Z+
     d30:	54 91       	lpm	r21, Z
				list += 2;
     d32:	fc 01       	movw	r30, r24
     d34:	36 96       	adiw	r30, 0x06	; 6
				desc_length = pgm_read_byte(list);
     d36:	24 91       	lpm	r18, Z
                wValue = UEDATX;
                wValue |= (UEDATX << 8);
                wIndex = UEDATX;
                wIndex |= (UEDATX << 8);
                wLength = UEDATX;
                wLength |= (UEDATX << 8);
     d38:	87 2f       	mov	r24, r23
     d3a:	90 e0       	ldi	r25, 0x00	; 0
     d3c:	9c 2b       	or	r25, r28
				desc_addr = (const uint8_t *)pgm_read_word(list);
				list += 2;
				desc_length = pgm_read_byte(list);
				break;
			}
			len = (wLength < 256) ? wLength : 255;
     d3e:	8f 3f       	cpi	r24, 0xFF	; 255
     d40:	91 05       	cpc	r25, r1
     d42:	19 f0       	breq	.+6      	; 0xd4a <__vector_11+0xb0>
     d44:	10 f0       	brcs	.+4      	; 0xd4a <__vector_11+0xb0>
     d46:	8f ef       	ldi	r24, 0xFF	; 255
     d48:	90 e0       	ldi	r25, 0x00	; 0
     d4a:	82 17       	cp	r24, r18
     d4c:	08 f4       	brcc	.+2      	; 0xd50 <__vector_11+0xb6>
     d4e:	28 2f       	mov	r18, r24
			if (len > desc_length) len = desc_length;
			do {
				// wait for host ready for IN packet
				do {
					i = UEINTX;
     d50:	a8 ee       	ldi	r26, 0xE8	; 232
     d52:	b0 e0       	ldi	r27, 0x00	; 0
				} while (!(i & ((1<<TXINI)|(1<<RXOUTI))));
				if (i & (1<<RXOUTI)) return;	// abort
				// send IN packet
				n = len < ENDPOINT0_SIZE ? len : ENDPOINT0_SIZE;
     d54:	70 e1       	ldi	r23, 0x10	; 16
{
	while (!(UEINTX & (1<<TXINI))) ;
}
static inline void usb_send_in(void)
{
	UEINTX = ~(1<<TXINI);
     d56:	6e ef       	ldi	r22, 0xFE	; 254
				} while (!(i & ((1<<TXINI)|(1<<RXOUTI))));
				if (i & (1<<RXOUTI)) return;	// abort
				// send IN packet
				n = len < ENDPOINT0_SIZE ? len : ENDPOINT0_SIZE;
				for (i = n; i; i--) {
					UEDATX = pgm_read_byte(desc_addr++);
     d58:	c1 ef       	ldi	r28, 0xF1	; 241
     d5a:	d0 e0       	ldi	r29, 0x00	; 0
     d5c:	03 c0       	rjmp	.+6      	; 0xd64 <__vector_11+0xca>
     d5e:	61 50       	subi	r22, 0x01	; 1
                wLength |= (UEDATX << 8);
                UEINTX = ~((1<<RXSTPI) | (1<<RXOUTI) | (1<<TXINI));
                if (bRequest == GET_DESCRIPTOR) {
			list = (const uint8_t *)descriptor_list;
			for (i=0; ; i++) {
				if (i >= NUM_DESC_LIST) {
     d60:	99 f6       	brne	.-90     	; 0xd08 <__vector_11+0x6e>
     d62:	cb cf       	rjmp	.-106    	; 0xcfa <__vector_11+0x60>
			len = (wLength < 256) ? wLength : 255;
			if (len > desc_length) len = desc_length;
			do {
				// wait for host ready for IN packet
				do {
					i = UEINTX;
     d64:	8c 91       	ld	r24, X
				} while (!(i & ((1<<TXINI)|(1<<RXOUTI))));
     d66:	98 2f       	mov	r25, r24
     d68:	95 70       	andi	r25, 0x05	; 5
     d6a:	e1 f3       	breq	.-8      	; 0xd64 <__vector_11+0xca>
				if (i & (1<<RXOUTI)) return;	// abort
     d6c:	82 fd       	sbrc	r24, 2
     d6e:	03 c1       	rjmp	.+518    	; 0xf76 <__vector_11+0x2dc>
				// send IN packet
				n = len < ENDPOINT0_SIZE ? len : ENDPOINT0_SIZE;
     d70:	32 2f       	mov	r19, r18
     d72:	21 31       	cpi	r18, 0x11	; 17
     d74:	08 f0       	brcs	.+2      	; 0xd78 <__vector_11+0xde>
     d76:	37 2f       	mov	r19, r23
				for (i = n; i; i--) {
     d78:	33 23       	and	r19, r19
     d7a:	09 f4       	brne	.+2      	; 0xd7e <__vector_11+0xe4>
     d7c:	f9 c0       	rjmp	.+498    	; 0xf70 <__vector_11+0x2d6>
     d7e:	fa 01       	movw	r30, r20
     d80:	83 2f       	mov	r24, r19
					UEDATX = pgm_read_byte(desc_addr++);
     d82:	94 91       	lpm	r25, Z
     d84:	98 83       	st	Y, r25
					i = UEINTX;
				} while (!(i & ((1<<TXINI)|(1<<RXOUTI))));
				if (i & (1<<RXOUTI)) return;	// abort
				// send IN packet
				n = len < ENDPOINT0_SIZE ? len : ENDPOINT0_SIZE;
				for (i = n; i; i--) {
     d86:	81 50       	subi	r24, 0x01	; 1
     d88:	31 96       	adiw	r30, 0x01	; 1
     d8a:	81 11       	cpse	r24, r1
     d8c:	fa cf       	rjmp	.-12     	; 0xd82 <__vector_11+0xe8>
     d8e:	8f ef       	ldi	r24, 0xFF	; 255
     d90:	83 0f       	add	r24, r19
     d92:	90 e0       	ldi	r25, 0x00	; 0
     d94:	01 96       	adiw	r24, 0x01	; 1
     d96:	48 0f       	add	r20, r24
     d98:	59 1f       	adc	r21, r25
					UEDATX = pgm_read_byte(desc_addr++);
				}
				len -= n;
     d9a:	23 1b       	sub	r18, r19
{
	while (!(UEINTX & (1<<TXINI))) ;
}
static inline void usb_send_in(void)
{
	UEINTX = ~(1<<TXINI);
     d9c:	6c 93       	st	X, r22
				for (i = n; i; i--) {
					UEDATX = pgm_read_byte(desc_addr++);
				}
				len -= n;
				usb_send_in();
			} while (len || n == ENDPOINT0_SIZE);
     d9e:	21 11       	cpse	r18, r1
     da0:	e1 cf       	rjmp	.-62     	; 0xd64 <__vector_11+0xca>
     da2:	30 31       	cpi	r19, 0x10	; 16
     da4:	f9 f2       	breq	.-66     	; 0xd64 <__vector_11+0xca>
     da6:	e7 c0       	rjmp	.+462    	; 0xf76 <__vector_11+0x2dc>
			return;
                }
		if (bRequest == SET_ADDRESS) {
     da8:	85 30       	cpi	r24, 0x05	; 5
     daa:	61 f4       	brne	.+24     	; 0xdc4 <__vector_11+0x12a>
{
	while (!(UEINTX & (1<<TXINI))) ;
}
static inline void usb_send_in(void)
{
	UEINTX = ~(1<<TXINI);
     dac:	8e ef       	ldi	r24, 0xFE	; 254
     dae:	80 93 e8 00 	sts	0x00E8, r24


// Misc functions to wait for ready and send/receive packets
static inline void usb_wait_in_ready(void)
{
	while (!(UEINTX & (1<<TXINI))) ;
     db2:	e8 ee       	ldi	r30, 0xE8	; 232
     db4:	f0 e0       	ldi	r31, 0x00	; 0
     db6:	80 81       	ld	r24, Z
     db8:	80 ff       	sbrs	r24, 0
     dba:	fd cf       	rjmp	.-6      	; 0xdb6 <__vector_11+0x11c>
			return;
                }
		if (bRequest == SET_ADDRESS) {
			usb_send_in();
			usb_wait_in_ready();
			UDADDR = wValue | (1<<ADDEN);
     dbc:	20 68       	ori	r18, 0x80	; 128
     dbe:	20 93 e3 00 	sts	0x00E3, r18
			return;
     dc2:	d9 c0       	rjmp	.+434    	; 0xf76 <__vector_11+0x2dc>
		}
		if (bRequest == SET_CONFIGURATION && bmRequestType == 0) {
     dc4:	89 30       	cpi	r24, 0x09	; 9
     dc6:	09 f0       	breq	.+2      	; 0xdca <__vector_11+0x130>
     dc8:	35 c0       	rjmp	.+106    	; 0xe34 <__vector_11+0x19a>
     dca:	61 11       	cpse	r22, r1
     dcc:	cd c0       	rjmp	.+410    	; 0xf68 <__vector_11+0x2ce>
			usb_configuration = wValue;
     dce:	20 93 a6 01 	sts	0x01A6, r18
			cdc_line_rtsdtr = 0;
     dd2:	10 92 a3 01 	sts	0x01A3, r1
			transmit_flush_timer = 0;
     dd6:	10 92 a5 01 	sts	0x01A5, r1
{
	while (!(UEINTX & (1<<TXINI))) ;
}
static inline void usb_send_in(void)
{
	UEINTX = ~(1<<TXINI);
     dda:	8e ef       	ldi	r24, 0xFE	; 254
     ddc:	80 93 e8 00 	sts	0x00E8, r24
			usb_configuration = wValue;
			cdc_line_rtsdtr = 0;
			transmit_flush_timer = 0;
			usb_send_in();
			cfg = endpoint_config_table;
			for (i=1; i<5; i++) {
     de0:	81 e0       	ldi	r24, 0x01	; 1
		if (bRequest == SET_CONFIGURATION && bmRequestType == 0) {
			usb_configuration = wValue;
			cdc_line_rtsdtr = 0;
			transmit_flush_timer = 0;
			usb_send_in();
			cfg = endpoint_config_table;
     de2:	21 e7       	ldi	r18, 0x71	; 113
     de4:	31 e0       	ldi	r19, 0x01	; 1
			for (i=1; i<5; i++) {
				UENUM = i;
     de6:	c9 ee       	ldi	r28, 0xE9	; 233
     de8:	d0 e0       	ldi	r29, 0x00	; 0
				en = pgm_read_byte(cfg++);
				UECONX = en;
     dea:	ab ee       	ldi	r26, 0xEB	; 235
     dec:	b0 e0       	ldi	r27, 0x00	; 0
				if (en) {
					UECFG0X = pgm_read_byte(cfg++);
     dee:	0c ee       	ldi	r16, 0xEC	; 236
     df0:	10 e0       	ldi	r17, 0x00	; 0
					UECFG1X = pgm_read_byte(cfg++);
     df2:	6d ee       	ldi	r22, 0xED	; 237
     df4:	70 e0       	ldi	r23, 0x00	; 0
			cdc_line_rtsdtr = 0;
			transmit_flush_timer = 0;
			usb_send_in();
			cfg = endpoint_config_table;
			for (i=1; i<5; i++) {
				UENUM = i;
     df6:	88 83       	st	Y, r24
				en = pgm_read_byte(cfg++);
     df8:	a9 01       	movw	r20, r18
     dfa:	4f 5f       	subi	r20, 0xFF	; 255
     dfc:	5f 4f       	sbci	r21, 0xFF	; 255
     dfe:	f9 01       	movw	r30, r18
     e00:	94 91       	lpm	r25, Z
				UECONX = en;
     e02:	9c 93       	st	X, r25
				if (en) {
     e04:	99 23       	and	r25, r25
     e06:	61 f0       	breq	.+24     	; 0xe20 <__vector_11+0x186>
					UECFG0X = pgm_read_byte(cfg++);
     e08:	fa 01       	movw	r30, r20
     e0a:	44 91       	lpm	r20, Z
     e0c:	f8 01       	movw	r30, r16
     e0e:	40 83       	st	Z, r20
					UECFG1X = pgm_read_byte(cfg++);
     e10:	f9 01       	movw	r30, r18
     e12:	32 96       	adiw	r30, 0x02	; 2
     e14:	94 91       	lpm	r25, Z
     e16:	2d 5f       	subi	r18, 0xFD	; 253
     e18:	3f 4f       	sbci	r19, 0xFF	; 255
     e1a:	fb 01       	movw	r30, r22
     e1c:	90 83       	st	Z, r25
     e1e:	01 c0       	rjmp	.+2      	; 0xe22 <__vector_11+0x188>
			transmit_flush_timer = 0;
			usb_send_in();
			cfg = endpoint_config_table;
			for (i=1; i<5; i++) {
				UENUM = i;
				en = pgm_read_byte(cfg++);
     e20:	9a 01       	movw	r18, r20
			usb_configuration = wValue;
			cdc_line_rtsdtr = 0;
			transmit_flush_timer = 0;
			usb_send_in();
			cfg = endpoint_config_table;
			for (i=1; i<5; i++) {
     e22:	8f 5f       	subi	r24, 0xFF	; 255
     e24:	85 30       	cpi	r24, 0x05	; 5
     e26:	39 f7       	brne	.-50     	; 0xdf6 <__vector_11+0x15c>
				if (en) {
					UECFG0X = pgm_read_byte(cfg++);
					UECFG1X = pgm_read_byte(cfg++);
				}
			}
        		UERST = 0x1E;
     e28:	ea ee       	ldi	r30, 0xEA	; 234
     e2a:	f0 e0       	ldi	r31, 0x00	; 0
     e2c:	8e e1       	ldi	r24, 0x1E	; 30
     e2e:	80 83       	st	Z, r24
        		UERST = 0;
     e30:	10 82       	st	Z, r1
			return;
     e32:	a1 c0       	rjmp	.+322    	; 0xf76 <__vector_11+0x2dc>
		}
		if (bRequest == GET_CONFIGURATION && bmRequestType == 0x80) {
     e34:	88 30       	cpi	r24, 0x08	; 8
     e36:	81 f4       	brne	.+32     	; 0xe58 <__vector_11+0x1be>
     e38:	60 38       	cpi	r22, 0x80	; 128
     e3a:	09 f0       	breq	.+2      	; 0xe3e <__vector_11+0x1a4>
     e3c:	95 c0       	rjmp	.+298    	; 0xf68 <__vector_11+0x2ce>


// Misc functions to wait for ready and send/receive packets
static inline void usb_wait_in_ready(void)
{
	while (!(UEINTX & (1<<TXINI))) ;
     e3e:	e8 ee       	ldi	r30, 0xE8	; 232
     e40:	f0 e0       	ldi	r31, 0x00	; 0
     e42:	80 81       	ld	r24, Z
     e44:	80 ff       	sbrs	r24, 0
     e46:	fd cf       	rjmp	.-6      	; 0xe42 <__vector_11+0x1a8>
        		UERST = 0;
			return;
		}
		if (bRequest == GET_CONFIGURATION && bmRequestType == 0x80) {
			usb_wait_in_ready();
			UEDATX = usb_configuration;
     e48:	80 91 a6 01 	lds	r24, 0x01A6
     e4c:	80 93 f1 00 	sts	0x00F1, r24
{
	while (!(UEINTX & (1<<TXINI))) ;
}
static inline void usb_send_in(void)
{
	UEINTX = ~(1<<TXINI);
     e50:	8e ef       	ldi	r24, 0xFE	; 254
     e52:	80 93 e8 00 	sts	0x00E8, r24
     e56:	8f c0       	rjmp	.+286    	; 0xf76 <__vector_11+0x2dc>
			usb_wait_in_ready();
			UEDATX = usb_configuration;
			usb_send_in();
			return;
		}
		if (bRequest == CDC_GET_LINE_CODING && bmRequestType == 0xA1) {
     e58:	81 32       	cpi	r24, 0x21	; 33
     e5a:	b9 f4       	brne	.+46     	; 0xe8a <__vector_11+0x1f0>
     e5c:	61 3a       	cpi	r22, 0xA1	; 161
     e5e:	09 f0       	breq	.+2      	; 0xe62 <__vector_11+0x1c8>
     e60:	83 c0       	rjmp	.+262    	; 0xf68 <__vector_11+0x2ce>


// Misc functions to wait for ready and send/receive packets
static inline void usb_wait_in_ready(void)
{
	while (!(UEINTX & (1<<TXINI))) ;
     e62:	e8 ee       	ldi	r30, 0xE8	; 232
     e64:	f0 e0       	ldi	r31, 0x00	; 0
     e66:	80 81       	ld	r24, Z
     e68:	80 ff       	sbrs	r24, 0
     e6a:	fd cf       	rjmp	.-6      	; 0xe66 <__vector_11+0x1cc>
     e6c:	ef e0       	ldi	r30, 0x0F	; 15
     e6e:	f1 e0       	ldi	r31, 0x01	; 1
     e70:	26 e1       	ldi	r18, 0x16	; 22
     e72:	31 e0       	ldi	r19, 0x01	; 1
		}
		if (bRequest == CDC_GET_LINE_CODING && bmRequestType == 0xA1) {
			usb_wait_in_ready();
			p = cdc_line_coding;
			for (i=0; i<7; i++) {
				UEDATX = *p++;
     e74:	a1 ef       	ldi	r26, 0xF1	; 241
     e76:	b0 e0       	ldi	r27, 0x00	; 0
     e78:	81 91       	ld	r24, Z+
     e7a:	8c 93       	st	X, r24
			return;
		}
		if (bRequest == CDC_GET_LINE_CODING && bmRequestType == 0xA1) {
			usb_wait_in_ready();
			p = cdc_line_coding;
			for (i=0; i<7; i++) {
     e7c:	e2 17       	cp	r30, r18
     e7e:	f3 07       	cpc	r31, r19
     e80:	d9 f7       	brne	.-10     	; 0xe78 <__vector_11+0x1de>
{
	while (!(UEINTX & (1<<TXINI))) ;
}
static inline void usb_send_in(void)
{
	UEINTX = ~(1<<TXINI);
     e82:	8e ef       	ldi	r24, 0xFE	; 254
     e84:	80 93 e8 00 	sts	0x00E8, r24
     e88:	76 c0       	rjmp	.+236    	; 0xf76 <__vector_11+0x2dc>
				UEDATX = *p++;
			}
			usb_send_in();
			return;
		}
		if (bRequest == CDC_SET_LINE_CODING && bmRequestType == 0x21) {
     e8a:	80 32       	cpi	r24, 0x20	; 32
     e8c:	d1 f4       	brne	.+52     	; 0xec2 <__vector_11+0x228>
     e8e:	61 32       	cpi	r22, 0x21	; 33
     e90:	09 f0       	breq	.+2      	; 0xe94 <__vector_11+0x1fa>
     e92:	6a c0       	rjmp	.+212    	; 0xf68 <__vector_11+0x2ce>
{
	UEINTX = ~(1<<TXINI);
}
static inline void usb_wait_receive_out(void)
{
	while (!(UEINTX & (1<<RXOUTI))) ;
     e94:	e8 ee       	ldi	r30, 0xE8	; 232
     e96:	f0 e0       	ldi	r31, 0x00	; 0
     e98:	80 81       	ld	r24, Z
     e9a:	82 ff       	sbrs	r24, 2
     e9c:	fd cf       	rjmp	.-6      	; 0xe98 <__vector_11+0x1fe>
     e9e:	ef e0       	ldi	r30, 0x0F	; 15
     ea0:	f1 e0       	ldi	r31, 0x01	; 1
     ea2:	26 e1       	ldi	r18, 0x16	; 22
     ea4:	31 e0       	ldi	r19, 0x01	; 1
		}
		if (bRequest == CDC_SET_LINE_CODING && bmRequestType == 0x21) {
			usb_wait_receive_out();
			p = cdc_line_coding;
			for (i=0; i<7; i++) {
				*p++ = UEDATX;
     ea6:	a1 ef       	ldi	r26, 0xF1	; 241
     ea8:	b0 e0       	ldi	r27, 0x00	; 0
     eaa:	8c 91       	ld	r24, X
     eac:	81 93       	st	Z+, r24
			return;
		}
		if (bRequest == CDC_SET_LINE_CODING && bmRequestType == 0x21) {
			usb_wait_receive_out();
			p = cdc_line_coding;
			for (i=0; i<7; i++) {
     eae:	e2 17       	cp	r30, r18
     eb0:	f3 07       	cpc	r31, r19
     eb2:	d9 f7       	brne	.-10     	; 0xeaa <__vector_11+0x210>
{
	while (!(UEINTX & (1<<RXOUTI))) ;
}
static inline void usb_ack_out(void)
{
	UEINTX = ~(1<<RXOUTI);
     eb4:	e8 ee       	ldi	r30, 0xE8	; 232
     eb6:	f0 e0       	ldi	r31, 0x00	; 0
     eb8:	8b ef       	ldi	r24, 0xFB	; 251
     eba:	80 83       	st	Z, r24
{
	while (!(UEINTX & (1<<TXINI))) ;
}
static inline void usb_send_in(void)
{
	UEINTX = ~(1<<TXINI);
     ebc:	8e ef       	ldi	r24, 0xFE	; 254
     ebe:	80 83       	st	Z, r24
     ec0:	5a c0       	rjmp	.+180    	; 0xf76 <__vector_11+0x2dc>
			}
			usb_ack_out();
			usb_send_in();
			return;
		}
		if (bRequest == CDC_SET_CONTROL_LINE_STATE && bmRequestType == 0x21) {
     ec2:	82 32       	cpi	r24, 0x22	; 34
     ec4:	71 f4       	brne	.+28     	; 0xee2 <__vector_11+0x248>
     ec6:	61 32       	cpi	r22, 0x21	; 33
     ec8:	09 f0       	breq	.+2      	; 0xecc <__vector_11+0x232>
     eca:	4e c0       	rjmp	.+156    	; 0xf68 <__vector_11+0x2ce>
			cdc_line_rtsdtr = wValue;
     ecc:	20 93 a3 01 	sts	0x01A3, r18


// Misc functions to wait for ready and send/receive packets
static inline void usb_wait_in_ready(void)
{
	while (!(UEINTX & (1<<TXINI))) ;
     ed0:	e8 ee       	ldi	r30, 0xE8	; 232
     ed2:	f0 e0       	ldi	r31, 0x00	; 0
     ed4:	80 81       	ld	r24, Z
     ed6:	80 ff       	sbrs	r24, 0
     ed8:	fd cf       	rjmp	.-6      	; 0xed4 <__vector_11+0x23a>
}
static inline void usb_send_in(void)
{
	UEINTX = ~(1<<TXINI);
     eda:	8e ef       	ldi	r24, 0xFE	; 254
     edc:	80 93 e8 00 	sts	0x00E8, r24
     ee0:	4a c0       	rjmp	.+148    	; 0xf76 <__vector_11+0x2dc>
			cdc_line_rtsdtr = wValue;
			usb_wait_in_ready();
			usb_send_in();
			return;
		}
		if (bRequest == GET_STATUS) {
     ee2:	81 11       	cpse	r24, r1
     ee4:	1a c0       	rjmp	.+52     	; 0xf1a <__vector_11+0x280>


// Misc functions to wait for ready and send/receive packets
static inline void usb_wait_in_ready(void)
{
	while (!(UEINTX & (1<<TXINI))) ;
     ee6:	e8 ee       	ldi	r30, 0xE8	; 232
     ee8:	f0 e0       	ldi	r31, 0x00	; 0
     eea:	80 81       	ld	r24, Z
     eec:	80 ff       	sbrs	r24, 0
     eee:	fd cf       	rjmp	.-6      	; 0xeea <__vector_11+0x250>
		}
		if (bRequest == GET_STATUS) {
			usb_wait_in_ready();
			i = 0;
			#ifdef SUPPORT_ENDPOINT_HALT
			if (bmRequestType == 0x82) {
     ef0:	62 38       	cpi	r22, 0x82	; 130
     ef2:	51 f4       	brne	.+20     	; 0xf08 <__vector_11+0x26e>
				UENUM = wIndex;
     ef4:	e9 ee       	ldi	r30, 0xE9	; 233
     ef6:	f0 e0       	ldi	r31, 0x00	; 0
     ef8:	40 83       	st	Z, r20
				if (UECONX & (1<<STALLRQ)) i = 1;
     efa:	80 91 eb 00 	lds	r24, 0x00EB
     efe:	85 fb       	bst	r24, 5
     f00:	88 27       	eor	r24, r24
     f02:	80 f9       	bld	r24, 0
				UENUM = 0;
     f04:	10 82       	st	Z, r1
     f06:	01 c0       	rjmp	.+2      	; 0xf0a <__vector_11+0x270>
			usb_send_in();
			return;
		}
		if (bRequest == GET_STATUS) {
			usb_wait_in_ready();
			i = 0;
     f08:	80 e0       	ldi	r24, 0x00	; 0
				UENUM = wIndex;
				if (UECONX & (1<<STALLRQ)) i = 1;
				UENUM = 0;
			}
			#endif
			UEDATX = i;
     f0a:	e1 ef       	ldi	r30, 0xF1	; 241
     f0c:	f0 e0       	ldi	r31, 0x00	; 0
     f0e:	80 83       	st	Z, r24
			UEDATX = 0;
     f10:	10 82       	st	Z, r1
{
	while (!(UEINTX & (1<<TXINI))) ;
}
static inline void usb_send_in(void)
{
	UEINTX = ~(1<<TXINI);
     f12:	8e ef       	ldi	r24, 0xFE	; 254
     f14:	80 93 e8 00 	sts	0x00E8, r24
     f18:	2e c0       	rjmp	.+92     	; 0xf76 <__vector_11+0x2dc>
			UEDATX = 0;
			usb_send_in();
			return;
		}
		#ifdef SUPPORT_ENDPOINT_HALT
		if ((bRequest == CLEAR_FEATURE || bRequest == SET_FEATURE)
     f1a:	98 2f       	mov	r25, r24
     f1c:	9d 7f       	andi	r25, 0xFD	; 253
     f1e:	91 30       	cpi	r25, 0x01	; 1
     f20:	19 f5       	brne	.+70     	; 0xf68 <__vector_11+0x2ce>
		  && bmRequestType == 0x02 && wValue == 0) {
     f22:	62 30       	cpi	r22, 0x02	; 2
     f24:	09 f5       	brne	.+66     	; 0xf68 <__vector_11+0x2ce>
     f26:	23 2b       	or	r18, r19
     f28:	f9 f4       	brne	.+62     	; 0xf68 <__vector_11+0x2ce>
			i = wIndex & 0x7F;
     f2a:	4f 77       	andi	r20, 0x7F	; 127
			if (i >= 1 && i <= MAX_ENDPOINT) {
     f2c:	9f ef       	ldi	r25, 0xFF	; 255
     f2e:	94 0f       	add	r25, r20
     f30:	94 30       	cpi	r25, 0x04	; 4
     f32:	d0 f4       	brcc	.+52     	; 0xf68 <__vector_11+0x2ce>
{
	while (!(UEINTX & (1<<TXINI))) ;
}
static inline void usb_send_in(void)
{
	UEINTX = ~(1<<TXINI);
     f34:	9e ef       	ldi	r25, 0xFE	; 254
     f36:	90 93 e8 00 	sts	0x00E8, r25
		if ((bRequest == CLEAR_FEATURE || bRequest == SET_FEATURE)
		  && bmRequestType == 0x02 && wValue == 0) {
			i = wIndex & 0x7F;
			if (i >= 1 && i <= MAX_ENDPOINT) {
				usb_send_in();
				UENUM = i;
     f3a:	40 93 e9 00 	sts	0x00E9, r20
				if (bRequest == SET_FEATURE) {
     f3e:	83 30       	cpi	r24, 0x03	; 3
     f40:	21 f4       	brne	.+8      	; 0xf4a <__vector_11+0x2b0>
					UECONX = (1<<STALLRQ)|(1<<EPEN);
     f42:	81 e2       	ldi	r24, 0x21	; 33
     f44:	80 93 eb 00 	sts	0x00EB, r24
     f48:	16 c0       	rjmp	.+44     	; 0xf76 <__vector_11+0x2dc>
				} else {
					UECONX = (1<<STALLRQC)|(1<<RSTDT)|(1<<EPEN);
     f4a:	89 e1       	ldi	r24, 0x19	; 25
     f4c:	80 93 eb 00 	sts	0x00EB, r24
					UERST = (1 << i);
     f50:	81 e0       	ldi	r24, 0x01	; 1
     f52:	90 e0       	ldi	r25, 0x00	; 0
     f54:	02 c0       	rjmp	.+4      	; 0xf5a <__vector_11+0x2c0>
     f56:	88 0f       	add	r24, r24
     f58:	99 1f       	adc	r25, r25
     f5a:	4a 95       	dec	r20
     f5c:	e2 f7       	brpl	.-8      	; 0xf56 <__vector_11+0x2bc>
     f5e:	ea ee       	ldi	r30, 0xEA	; 234
     f60:	f0 e0       	ldi	r31, 0x00	; 0
     f62:	80 83       	st	Z, r24
					UERST = 0;
     f64:	10 82       	st	Z, r1
     f66:	07 c0       	rjmp	.+14     	; 0xf76 <__vector_11+0x2dc>
				return;
			}
		}
		#endif
        }
	UECONX = (1<<STALLRQ) | (1<<EPEN);	// stall
     f68:	81 e2       	ldi	r24, 0x21	; 33
     f6a:	80 93 eb 00 	sts	0x00EB, r24
     f6e:	03 c0       	rjmp	.+6      	; 0xf76 <__vector_11+0x2dc>
{
	while (!(UEINTX & (1<<TXINI))) ;
}
static inline void usb_send_in(void)
{
	UEINTX = ~(1<<TXINI);
     f70:	6c 93       	st	X, r22
				for (i = n; i; i--) {
					UEDATX = pgm_read_byte(desc_addr++);
				}
				len -= n;
				usb_send_in();
			} while (len || n == ENDPOINT0_SIZE);
     f72:	21 11       	cpse	r18, r1
     f74:	f7 ce       	rjmp	.-530    	; 0xd64 <__vector_11+0xca>
			}
		}
		#endif
        }
	UECONX = (1<<STALLRQ) | (1<<EPEN);	// stall
}
     f76:	ff 91       	pop	r31
     f78:	ef 91       	pop	r30
     f7a:	df 91       	pop	r29
     f7c:	cf 91       	pop	r28
     f7e:	bf 91       	pop	r27
     f80:	af 91       	pop	r26
     f82:	9f 91       	pop	r25
     f84:	8f 91       	pop	r24
     f86:	7f 91       	pop	r23
     f88:	6f 91       	pop	r22
     f8a:	5f 91       	pop	r21
     f8c:	4f 91       	pop	r20
     f8e:	3f 91       	pop	r19
     f90:	2f 91       	pop	r18
     f92:	1f 91       	pop	r17
     f94:	0f 91       	pop	r16
     f96:	0f 90       	pop	r0
     f98:	0f be       	out	0x3f, r0	; 63
     f9a:	0f 90       	pop	r0
     f9c:	1f 90       	pop	r1
     f9e:	18 95       	reti

00000fa0 <recv_str>:

uint8_t recv_str(char *buf, uint8_t size) {
     fa0:	ef 92       	push	r14
     fa2:	ff 92       	push	r15
     fa4:	0f 93       	push	r16
     fa6:	1f 93       	push	r17
     fa8:	cf 93       	push	r28
     faa:	df 93       	push	r29
     fac:	c6 2f       	mov	r28, r22
     fae:	8c 01       	movw	r16, r24
	char data;
	uint8_t count=0;
     fb0:	d0 e0       	ldi	r29, 0x00	; 0
	
	while (count < size) {
     fb2:	12 c0       	rjmp	.+36     	; 0xfd8 <recv_str+0x38>
		data = usb_serial_getchar();
     fb4:	0e 94 6b 05 	call	0xad6	; 0xad6 <usb_serial_getchar>
		//usb_serial_putchar(data);
		if (data == '\r' || data == '\n') {
     fb8:	8d 30       	cpi	r24, 0x0D	; 13
     fba:	11 f0       	breq	.+4      	; 0xfc0 <recv_str+0x20>
     fbc:	8a 30       	cpi	r24, 0x0A	; 10
     fbe:	19 f4       	brne	.+6      	; 0xfc6 <recv_str+0x26>
			*buf = '\0';
     fc0:	f7 01       	movw	r30, r14
     fc2:	10 82       	st	Z, r1
			return size;
     fc4:	11 c0       	rjmp	.+34     	; 0xfe8 <recv_str+0x48>
		}
		if (data >= ' ' && data <= '~') {
     fc6:	90 ee       	ldi	r25, 0xE0	; 224
     fc8:	98 0f       	add	r25, r24
     fca:	9f 35       	cpi	r25, 0x5F	; 95
     fcc:	50 f4       	brcc	.+20     	; 0xfe2 <recv_str+0x42>
			*buf++ = data;
     fce:	f7 01       	movw	r30, r14
     fd0:	80 83       	st	Z, r24
     fd2:	0f 5f       	subi	r16, 0xFF	; 255
     fd4:	1f 4f       	sbci	r17, 0xFF	; 255
			count++;
     fd6:	df 5f       	subi	r29, 0xFF	; 255
     fd8:	78 01       	movw	r14, r16

uint8_t recv_str(char *buf, uint8_t size) {
	char data;
	uint8_t count=0;
	
	while (count < size) {
     fda:	dc 13       	cpse	r29, r28
     fdc:	eb cf       	rjmp	.-42     	; 0xfb4 <recv_str+0x14>
     fde:	dc 2f       	mov	r29, r28
     fe0:	02 c0       	rjmp	.+4      	; 0xfe6 <recv_str+0x46>
     fe2:	dc 17       	cp	r29, r28
     fe4:	38 f3       	brcs	.-50     	; 0xfb4 <recv_str+0x14>
		if (data >= ' ' && data <= '~') {
			*buf++ = data;
			count++;
		}
	}
	return count;
     fe6:	cd 2f       	mov	r28, r29
}
     fe8:	8c 2f       	mov	r24, r28
     fea:	df 91       	pop	r29
     fec:	cf 91       	pop	r28
     fee:	1f 91       	pop	r17
     ff0:	0f 91       	pop	r16
     ff2:	ff 90       	pop	r15
     ff4:	ef 90       	pop	r14
     ff6:	08 95       	ret

00000ff8 <usb_write>:

void usb_write(const char *str) {
     ff8:	cf 93       	push	r28
     ffa:	df 93       	push	r29
     ffc:	ec 01       	movw	r28, r24
	while (*str) {
     ffe:	88 81       	ld	r24, Y
    1000:	88 23       	and	r24, r24
    1002:	31 f0       	breq	.+12     	; 0x1010 <usb_write+0x18>
    1004:	21 96       	adiw	r28, 0x01	; 1
		usb_serial_putchar(*str);
    1006:	0e 94 b4 05 	call	0xb68	; 0xb68 <usb_serial_putchar>
	}
	return count;
}

void usb_write(const char *str) {
	while (*str) {
    100a:	89 91       	ld	r24, Y+
    100c:	81 11       	cpse	r24, r1
    100e:	fb cf       	rjmp	.-10     	; 0x1006 <usb_write+0xe>
		usb_serial_putchar(*str);
		str++;
	}
    1010:	df 91       	pop	r29
    1012:	cf 91       	pop	r28
    1014:	08 95       	ret

00001016 <__divmodhi4>:
    1016:	97 fb       	bst	r25, 7
    1018:	07 2e       	mov	r0, r23
    101a:	16 f4       	brtc	.+4      	; 0x1020 <__divmodhi4+0xa>
    101c:	00 94       	com	r0
    101e:	07 d0       	rcall	.+14     	; 0x102e <__divmodhi4_neg1>
    1020:	77 fd       	sbrc	r23, 7
    1022:	09 d0       	rcall	.+18     	; 0x1036 <__divmodhi4_neg2>
    1024:	0e 94 1f 08 	call	0x103e	; 0x103e <__udivmodhi4>
    1028:	07 fc       	sbrc	r0, 7
    102a:	05 d0       	rcall	.+10     	; 0x1036 <__divmodhi4_neg2>
    102c:	3e f4       	brtc	.+14     	; 0x103c <__divmodhi4_exit>

0000102e <__divmodhi4_neg1>:
    102e:	90 95       	com	r25
    1030:	81 95       	neg	r24
    1032:	9f 4f       	sbci	r25, 0xFF	; 255
    1034:	08 95       	ret

00001036 <__divmodhi4_neg2>:
    1036:	70 95       	com	r23
    1038:	61 95       	neg	r22
    103a:	7f 4f       	sbci	r23, 0xFF	; 255

0000103c <__divmodhi4_exit>:
    103c:	08 95       	ret

0000103e <__udivmodhi4>:
    103e:	aa 1b       	sub	r26, r26
    1040:	bb 1b       	sub	r27, r27
    1042:	51 e1       	ldi	r21, 0x11	; 17
    1044:	07 c0       	rjmp	.+14     	; 0x1054 <__udivmodhi4_ep>

00001046 <__udivmodhi4_loop>:
    1046:	aa 1f       	adc	r26, r26
    1048:	bb 1f       	adc	r27, r27
    104a:	a6 17       	cp	r26, r22
    104c:	b7 07       	cpc	r27, r23
    104e:	10 f0       	brcs	.+4      	; 0x1054 <__udivmodhi4_ep>
    1050:	a6 1b       	sub	r26, r22
    1052:	b7 0b       	sbc	r27, r23

00001054 <__udivmodhi4_ep>:
    1054:	88 1f       	adc	r24, r24
    1056:	99 1f       	adc	r25, r25
    1058:	5a 95       	dec	r21
    105a:	a9 f7       	brne	.-22     	; 0x1046 <__udivmodhi4_loop>
    105c:	80 95       	com	r24
    105e:	90 95       	com	r25
    1060:	bc 01       	movw	r22, r24
    1062:	cd 01       	movw	r24, r26
    1064:	08 95       	ret

00001066 <sprintf>:
    1066:	ae e0       	ldi	r26, 0x0E	; 14
    1068:	b0 e0       	ldi	r27, 0x00	; 0
    106a:	e9 e3       	ldi	r30, 0x39	; 57
    106c:	f8 e0       	ldi	r31, 0x08	; 8
    106e:	0c 94 e2 0a 	jmp	0x15c4	; 0x15c4 <__prologue_saves__+0x1c>
    1072:	0d 89       	ldd	r16, Y+21	; 0x15
    1074:	1e 89       	ldd	r17, Y+22	; 0x16
    1076:	86 e0       	ldi	r24, 0x06	; 6
    1078:	8c 83       	std	Y+4, r24	; 0x04
    107a:	1a 83       	std	Y+2, r17	; 0x02
    107c:	09 83       	std	Y+1, r16	; 0x01
    107e:	8f ef       	ldi	r24, 0xFF	; 255
    1080:	9f e7       	ldi	r25, 0x7F	; 127
    1082:	9e 83       	std	Y+6, r25	; 0x06
    1084:	8d 83       	std	Y+5, r24	; 0x05
    1086:	ae 01       	movw	r20, r28
    1088:	47 5e       	subi	r20, 0xE7	; 231
    108a:	5f 4f       	sbci	r21, 0xFF	; 255
    108c:	6f 89       	ldd	r22, Y+23	; 0x17
    108e:	78 8d       	ldd	r23, Y+24	; 0x18
    1090:	ce 01       	movw	r24, r28
    1092:	01 96       	adiw	r24, 0x01	; 1
    1094:	0e 94 56 08 	call	0x10ac	; 0x10ac <vfprintf>
    1098:	2f 81       	ldd	r18, Y+7	; 0x07
    109a:	38 85       	ldd	r19, Y+8	; 0x08
    109c:	f8 01       	movw	r30, r16
    109e:	e2 0f       	add	r30, r18
    10a0:	f3 1f       	adc	r31, r19
    10a2:	10 82       	st	Z, r1
    10a4:	2e 96       	adiw	r28, 0x0e	; 14
    10a6:	e4 e0       	ldi	r30, 0x04	; 4
    10a8:	0c 94 fe 0a 	jmp	0x15fc	; 0x15fc <__epilogue_restores__+0x1c>

000010ac <vfprintf>:
    10ac:	ac e0       	ldi	r26, 0x0C	; 12
    10ae:	b0 e0       	ldi	r27, 0x00	; 0
    10b0:	ec e5       	ldi	r30, 0x5C	; 92
    10b2:	f8 e0       	ldi	r31, 0x08	; 8
    10b4:	0c 94 d4 0a 	jmp	0x15a8	; 0x15a8 <__prologue_saves__>
    10b8:	7c 01       	movw	r14, r24
    10ba:	6b 01       	movw	r12, r22
    10bc:	8a 01       	movw	r16, r20
    10be:	fc 01       	movw	r30, r24
    10c0:	17 82       	std	Z+7, r1	; 0x07
    10c2:	16 82       	std	Z+6, r1	; 0x06
    10c4:	83 81       	ldd	r24, Z+3	; 0x03
    10c6:	81 ff       	sbrs	r24, 1
    10c8:	bd c1       	rjmp	.+890    	; 0x1444 <vfprintf+0x398>
    10ca:	ce 01       	movw	r24, r28
    10cc:	01 96       	adiw	r24, 0x01	; 1
    10ce:	4c 01       	movw	r8, r24
    10d0:	f7 01       	movw	r30, r14
    10d2:	93 81       	ldd	r25, Z+3	; 0x03
    10d4:	f6 01       	movw	r30, r12
    10d6:	93 fd       	sbrc	r25, 3
    10d8:	85 91       	lpm	r24, Z+
    10da:	93 ff       	sbrs	r25, 3
    10dc:	81 91       	ld	r24, Z+
    10de:	6f 01       	movw	r12, r30
    10e0:	88 23       	and	r24, r24
    10e2:	09 f4       	brne	.+2      	; 0x10e6 <vfprintf+0x3a>
    10e4:	ab c1       	rjmp	.+854    	; 0x143c <vfprintf+0x390>
    10e6:	85 32       	cpi	r24, 0x25	; 37
    10e8:	39 f4       	brne	.+14     	; 0x10f8 <vfprintf+0x4c>
    10ea:	93 fd       	sbrc	r25, 3
    10ec:	85 91       	lpm	r24, Z+
    10ee:	93 ff       	sbrs	r25, 3
    10f0:	81 91       	ld	r24, Z+
    10f2:	6f 01       	movw	r12, r30
    10f4:	85 32       	cpi	r24, 0x25	; 37
    10f6:	29 f4       	brne	.+10     	; 0x1102 <vfprintf+0x56>
    10f8:	b7 01       	movw	r22, r14
    10fa:	90 e0       	ldi	r25, 0x00	; 0
    10fc:	0e 94 3e 0a 	call	0x147c	; 0x147c <fputc>
    1100:	e7 cf       	rjmp	.-50     	; 0x10d0 <vfprintf+0x24>
    1102:	51 2c       	mov	r5, r1
    1104:	31 2c       	mov	r3, r1
    1106:	20 e0       	ldi	r18, 0x00	; 0
    1108:	20 32       	cpi	r18, 0x20	; 32
    110a:	a0 f4       	brcc	.+40     	; 0x1134 <vfprintf+0x88>
    110c:	8b 32       	cpi	r24, 0x2B	; 43
    110e:	69 f0       	breq	.+26     	; 0x112a <vfprintf+0x7e>
    1110:	30 f4       	brcc	.+12     	; 0x111e <vfprintf+0x72>
    1112:	80 32       	cpi	r24, 0x20	; 32
    1114:	59 f0       	breq	.+22     	; 0x112c <vfprintf+0x80>
    1116:	83 32       	cpi	r24, 0x23	; 35
    1118:	69 f4       	brne	.+26     	; 0x1134 <vfprintf+0x88>
    111a:	20 61       	ori	r18, 0x10	; 16
    111c:	2c c0       	rjmp	.+88     	; 0x1176 <vfprintf+0xca>
    111e:	8d 32       	cpi	r24, 0x2D	; 45
    1120:	39 f0       	breq	.+14     	; 0x1130 <vfprintf+0x84>
    1122:	80 33       	cpi	r24, 0x30	; 48
    1124:	39 f4       	brne	.+14     	; 0x1134 <vfprintf+0x88>
    1126:	21 60       	ori	r18, 0x01	; 1
    1128:	26 c0       	rjmp	.+76     	; 0x1176 <vfprintf+0xca>
    112a:	22 60       	ori	r18, 0x02	; 2
    112c:	24 60       	ori	r18, 0x04	; 4
    112e:	23 c0       	rjmp	.+70     	; 0x1176 <vfprintf+0xca>
    1130:	28 60       	ori	r18, 0x08	; 8
    1132:	21 c0       	rjmp	.+66     	; 0x1176 <vfprintf+0xca>
    1134:	27 fd       	sbrc	r18, 7
    1136:	27 c0       	rjmp	.+78     	; 0x1186 <vfprintf+0xda>
    1138:	30 ed       	ldi	r19, 0xD0	; 208
    113a:	38 0f       	add	r19, r24
    113c:	3a 30       	cpi	r19, 0x0A	; 10
    113e:	78 f4       	brcc	.+30     	; 0x115e <vfprintf+0xb2>
    1140:	26 ff       	sbrs	r18, 6
    1142:	06 c0       	rjmp	.+12     	; 0x1150 <vfprintf+0xa4>
    1144:	fa e0       	ldi	r31, 0x0A	; 10
    1146:	5f 9e       	mul	r5, r31
    1148:	30 0d       	add	r19, r0
    114a:	11 24       	eor	r1, r1
    114c:	53 2e       	mov	r5, r19
    114e:	13 c0       	rjmp	.+38     	; 0x1176 <vfprintf+0xca>
    1150:	8a e0       	ldi	r24, 0x0A	; 10
    1152:	38 9e       	mul	r3, r24
    1154:	30 0d       	add	r19, r0
    1156:	11 24       	eor	r1, r1
    1158:	33 2e       	mov	r3, r19
    115a:	20 62       	ori	r18, 0x20	; 32
    115c:	0c c0       	rjmp	.+24     	; 0x1176 <vfprintf+0xca>
    115e:	8e 32       	cpi	r24, 0x2E	; 46
    1160:	21 f4       	brne	.+8      	; 0x116a <vfprintf+0xbe>
    1162:	26 fd       	sbrc	r18, 6
    1164:	6b c1       	rjmp	.+726    	; 0x143c <vfprintf+0x390>
    1166:	20 64       	ori	r18, 0x40	; 64
    1168:	06 c0       	rjmp	.+12     	; 0x1176 <vfprintf+0xca>
    116a:	8c 36       	cpi	r24, 0x6C	; 108
    116c:	11 f4       	brne	.+4      	; 0x1172 <vfprintf+0xc6>
    116e:	20 68       	ori	r18, 0x80	; 128
    1170:	02 c0       	rjmp	.+4      	; 0x1176 <vfprintf+0xca>
    1172:	88 36       	cpi	r24, 0x68	; 104
    1174:	41 f4       	brne	.+16     	; 0x1186 <vfprintf+0xda>
    1176:	f6 01       	movw	r30, r12
    1178:	93 fd       	sbrc	r25, 3
    117a:	85 91       	lpm	r24, Z+
    117c:	93 ff       	sbrs	r25, 3
    117e:	81 91       	ld	r24, Z+
    1180:	6f 01       	movw	r12, r30
    1182:	81 11       	cpse	r24, r1
    1184:	c1 cf       	rjmp	.-126    	; 0x1108 <vfprintf+0x5c>
    1186:	98 2f       	mov	r25, r24
    1188:	9f 7d       	andi	r25, 0xDF	; 223
    118a:	95 54       	subi	r25, 0x45	; 69
    118c:	93 30       	cpi	r25, 0x03	; 3
    118e:	28 f4       	brcc	.+10     	; 0x119a <vfprintf+0xee>
    1190:	0c 5f       	subi	r16, 0xFC	; 252
    1192:	1f 4f       	sbci	r17, 0xFF	; 255
    1194:	ff e3       	ldi	r31, 0x3F	; 63
    1196:	f9 83       	std	Y+1, r31	; 0x01
    1198:	0d c0       	rjmp	.+26     	; 0x11b4 <vfprintf+0x108>
    119a:	83 36       	cpi	r24, 0x63	; 99
    119c:	31 f0       	breq	.+12     	; 0x11aa <vfprintf+0xfe>
    119e:	83 37       	cpi	r24, 0x73	; 115
    11a0:	71 f0       	breq	.+28     	; 0x11be <vfprintf+0x112>
    11a2:	83 35       	cpi	r24, 0x53	; 83
    11a4:	09 f0       	breq	.+2      	; 0x11a8 <vfprintf+0xfc>
    11a6:	5b c0       	rjmp	.+182    	; 0x125e <vfprintf+0x1b2>
    11a8:	22 c0       	rjmp	.+68     	; 0x11ee <vfprintf+0x142>
    11aa:	f8 01       	movw	r30, r16
    11ac:	80 81       	ld	r24, Z
    11ae:	89 83       	std	Y+1, r24	; 0x01
    11b0:	0e 5f       	subi	r16, 0xFE	; 254
    11b2:	1f 4f       	sbci	r17, 0xFF	; 255
    11b4:	44 24       	eor	r4, r4
    11b6:	43 94       	inc	r4
    11b8:	51 2c       	mov	r5, r1
    11ba:	54 01       	movw	r10, r8
    11bc:	15 c0       	rjmp	.+42     	; 0x11e8 <vfprintf+0x13c>
    11be:	38 01       	movw	r6, r16
    11c0:	f2 e0       	ldi	r31, 0x02	; 2
    11c2:	6f 0e       	add	r6, r31
    11c4:	71 1c       	adc	r7, r1
    11c6:	f8 01       	movw	r30, r16
    11c8:	a0 80       	ld	r10, Z
    11ca:	b1 80       	ldd	r11, Z+1	; 0x01
    11cc:	26 ff       	sbrs	r18, 6
    11ce:	03 c0       	rjmp	.+6      	; 0x11d6 <vfprintf+0x12a>
    11d0:	65 2d       	mov	r22, r5
    11d2:	70 e0       	ldi	r23, 0x00	; 0
    11d4:	02 c0       	rjmp	.+4      	; 0x11da <vfprintf+0x12e>
    11d6:	6f ef       	ldi	r22, 0xFF	; 255
    11d8:	7f ef       	ldi	r23, 0xFF	; 255
    11da:	c5 01       	movw	r24, r10
    11dc:	2c 87       	std	Y+12, r18	; 0x0c
    11de:	0e 94 33 0a 	call	0x1466	; 0x1466 <strnlen>
    11e2:	2c 01       	movw	r4, r24
    11e4:	83 01       	movw	r16, r6
    11e6:	2c 85       	ldd	r18, Y+12	; 0x0c
    11e8:	2f 77       	andi	r18, 0x7F	; 127
    11ea:	22 2e       	mov	r2, r18
    11ec:	17 c0       	rjmp	.+46     	; 0x121c <vfprintf+0x170>
    11ee:	38 01       	movw	r6, r16
    11f0:	f2 e0       	ldi	r31, 0x02	; 2
    11f2:	6f 0e       	add	r6, r31
    11f4:	71 1c       	adc	r7, r1
    11f6:	f8 01       	movw	r30, r16
    11f8:	a0 80       	ld	r10, Z
    11fa:	b1 80       	ldd	r11, Z+1	; 0x01
    11fc:	26 ff       	sbrs	r18, 6
    11fe:	03 c0       	rjmp	.+6      	; 0x1206 <vfprintf+0x15a>
    1200:	65 2d       	mov	r22, r5
    1202:	70 e0       	ldi	r23, 0x00	; 0
    1204:	02 c0       	rjmp	.+4      	; 0x120a <vfprintf+0x15e>
    1206:	6f ef       	ldi	r22, 0xFF	; 255
    1208:	7f ef       	ldi	r23, 0xFF	; 255
    120a:	c5 01       	movw	r24, r10
    120c:	2c 87       	std	Y+12, r18	; 0x0c
    120e:	0e 94 28 0a 	call	0x1450	; 0x1450 <strnlen_P>
    1212:	2c 01       	movw	r4, r24
    1214:	2c 85       	ldd	r18, Y+12	; 0x0c
    1216:	20 68       	ori	r18, 0x80	; 128
    1218:	22 2e       	mov	r2, r18
    121a:	83 01       	movw	r16, r6
    121c:	23 fc       	sbrc	r2, 3
    121e:	1b c0       	rjmp	.+54     	; 0x1256 <vfprintf+0x1aa>
    1220:	83 2d       	mov	r24, r3
    1222:	90 e0       	ldi	r25, 0x00	; 0
    1224:	48 16       	cp	r4, r24
    1226:	59 06       	cpc	r5, r25
    1228:	b0 f4       	brcc	.+44     	; 0x1256 <vfprintf+0x1aa>
    122a:	b7 01       	movw	r22, r14
    122c:	80 e2       	ldi	r24, 0x20	; 32
    122e:	90 e0       	ldi	r25, 0x00	; 0
    1230:	0e 94 3e 0a 	call	0x147c	; 0x147c <fputc>
    1234:	3a 94       	dec	r3
    1236:	f4 cf       	rjmp	.-24     	; 0x1220 <vfprintf+0x174>
    1238:	f5 01       	movw	r30, r10
    123a:	27 fc       	sbrc	r2, 7
    123c:	85 91       	lpm	r24, Z+
    123e:	27 fe       	sbrs	r2, 7
    1240:	81 91       	ld	r24, Z+
    1242:	5f 01       	movw	r10, r30
    1244:	b7 01       	movw	r22, r14
    1246:	90 e0       	ldi	r25, 0x00	; 0
    1248:	0e 94 3e 0a 	call	0x147c	; 0x147c <fputc>
    124c:	31 10       	cpse	r3, r1
    124e:	3a 94       	dec	r3
    1250:	f1 e0       	ldi	r31, 0x01	; 1
    1252:	4f 1a       	sub	r4, r31
    1254:	51 08       	sbc	r5, r1
    1256:	41 14       	cp	r4, r1
    1258:	51 04       	cpc	r5, r1
    125a:	71 f7       	brne	.-36     	; 0x1238 <vfprintf+0x18c>
    125c:	e5 c0       	rjmp	.+458    	; 0x1428 <vfprintf+0x37c>
    125e:	84 36       	cpi	r24, 0x64	; 100
    1260:	11 f0       	breq	.+4      	; 0x1266 <vfprintf+0x1ba>
    1262:	89 36       	cpi	r24, 0x69	; 105
    1264:	39 f5       	brne	.+78     	; 0x12b4 <vfprintf+0x208>
    1266:	f8 01       	movw	r30, r16
    1268:	27 ff       	sbrs	r18, 7
    126a:	07 c0       	rjmp	.+14     	; 0x127a <vfprintf+0x1ce>
    126c:	60 81       	ld	r22, Z
    126e:	71 81       	ldd	r23, Z+1	; 0x01
    1270:	82 81       	ldd	r24, Z+2	; 0x02
    1272:	93 81       	ldd	r25, Z+3	; 0x03
    1274:	0c 5f       	subi	r16, 0xFC	; 252
    1276:	1f 4f       	sbci	r17, 0xFF	; 255
    1278:	08 c0       	rjmp	.+16     	; 0x128a <vfprintf+0x1de>
    127a:	60 81       	ld	r22, Z
    127c:	71 81       	ldd	r23, Z+1	; 0x01
    127e:	07 2e       	mov	r0, r23
    1280:	00 0c       	add	r0, r0
    1282:	88 0b       	sbc	r24, r24
    1284:	99 0b       	sbc	r25, r25
    1286:	0e 5f       	subi	r16, 0xFE	; 254
    1288:	1f 4f       	sbci	r17, 0xFF	; 255
    128a:	2f 76       	andi	r18, 0x6F	; 111
    128c:	72 2e       	mov	r7, r18
    128e:	97 ff       	sbrs	r25, 7
    1290:	09 c0       	rjmp	.+18     	; 0x12a4 <vfprintf+0x1f8>
    1292:	90 95       	com	r25
    1294:	80 95       	com	r24
    1296:	70 95       	com	r23
    1298:	61 95       	neg	r22
    129a:	7f 4f       	sbci	r23, 0xFF	; 255
    129c:	8f 4f       	sbci	r24, 0xFF	; 255
    129e:	9f 4f       	sbci	r25, 0xFF	; 255
    12a0:	20 68       	ori	r18, 0x80	; 128
    12a2:	72 2e       	mov	r7, r18
    12a4:	2a e0       	ldi	r18, 0x0A	; 10
    12a6:	30 e0       	ldi	r19, 0x00	; 0
    12a8:	a4 01       	movw	r20, r8
    12aa:	0e 94 76 0a 	call	0x14ec	; 0x14ec <__ultoa_invert>
    12ae:	a8 2e       	mov	r10, r24
    12b0:	a8 18       	sub	r10, r8
    12b2:	44 c0       	rjmp	.+136    	; 0x133c <vfprintf+0x290>
    12b4:	85 37       	cpi	r24, 0x75	; 117
    12b6:	29 f4       	brne	.+10     	; 0x12c2 <vfprintf+0x216>
    12b8:	2f 7e       	andi	r18, 0xEF	; 239
    12ba:	b2 2e       	mov	r11, r18
    12bc:	2a e0       	ldi	r18, 0x0A	; 10
    12be:	30 e0       	ldi	r19, 0x00	; 0
    12c0:	25 c0       	rjmp	.+74     	; 0x130c <vfprintf+0x260>
    12c2:	f2 2f       	mov	r31, r18
    12c4:	f9 7f       	andi	r31, 0xF9	; 249
    12c6:	bf 2e       	mov	r11, r31
    12c8:	8f 36       	cpi	r24, 0x6F	; 111
    12ca:	c1 f0       	breq	.+48     	; 0x12fc <vfprintf+0x250>
    12cc:	18 f4       	brcc	.+6      	; 0x12d4 <vfprintf+0x228>
    12ce:	88 35       	cpi	r24, 0x58	; 88
    12d0:	79 f0       	breq	.+30     	; 0x12f0 <vfprintf+0x244>
    12d2:	b4 c0       	rjmp	.+360    	; 0x143c <vfprintf+0x390>
    12d4:	80 37       	cpi	r24, 0x70	; 112
    12d6:	19 f0       	breq	.+6      	; 0x12de <vfprintf+0x232>
    12d8:	88 37       	cpi	r24, 0x78	; 120
    12da:	21 f0       	breq	.+8      	; 0x12e4 <vfprintf+0x238>
    12dc:	af c0       	rjmp	.+350    	; 0x143c <vfprintf+0x390>
    12de:	2f 2f       	mov	r18, r31
    12e0:	20 61       	ori	r18, 0x10	; 16
    12e2:	b2 2e       	mov	r11, r18
    12e4:	b4 fe       	sbrs	r11, 4
    12e6:	0d c0       	rjmp	.+26     	; 0x1302 <vfprintf+0x256>
    12e8:	8b 2d       	mov	r24, r11
    12ea:	84 60       	ori	r24, 0x04	; 4
    12ec:	b8 2e       	mov	r11, r24
    12ee:	09 c0       	rjmp	.+18     	; 0x1302 <vfprintf+0x256>
    12f0:	24 ff       	sbrs	r18, 4
    12f2:	0a c0       	rjmp	.+20     	; 0x1308 <vfprintf+0x25c>
    12f4:	9f 2f       	mov	r25, r31
    12f6:	96 60       	ori	r25, 0x06	; 6
    12f8:	b9 2e       	mov	r11, r25
    12fa:	06 c0       	rjmp	.+12     	; 0x1308 <vfprintf+0x25c>
    12fc:	28 e0       	ldi	r18, 0x08	; 8
    12fe:	30 e0       	ldi	r19, 0x00	; 0
    1300:	05 c0       	rjmp	.+10     	; 0x130c <vfprintf+0x260>
    1302:	20 e1       	ldi	r18, 0x10	; 16
    1304:	30 e0       	ldi	r19, 0x00	; 0
    1306:	02 c0       	rjmp	.+4      	; 0x130c <vfprintf+0x260>
    1308:	20 e1       	ldi	r18, 0x10	; 16
    130a:	32 e0       	ldi	r19, 0x02	; 2
    130c:	f8 01       	movw	r30, r16
    130e:	b7 fe       	sbrs	r11, 7
    1310:	07 c0       	rjmp	.+14     	; 0x1320 <vfprintf+0x274>
    1312:	60 81       	ld	r22, Z
    1314:	71 81       	ldd	r23, Z+1	; 0x01
    1316:	82 81       	ldd	r24, Z+2	; 0x02
    1318:	93 81       	ldd	r25, Z+3	; 0x03
    131a:	0c 5f       	subi	r16, 0xFC	; 252
    131c:	1f 4f       	sbci	r17, 0xFF	; 255
    131e:	06 c0       	rjmp	.+12     	; 0x132c <vfprintf+0x280>
    1320:	60 81       	ld	r22, Z
    1322:	71 81       	ldd	r23, Z+1	; 0x01
    1324:	80 e0       	ldi	r24, 0x00	; 0
    1326:	90 e0       	ldi	r25, 0x00	; 0
    1328:	0e 5f       	subi	r16, 0xFE	; 254
    132a:	1f 4f       	sbci	r17, 0xFF	; 255
    132c:	a4 01       	movw	r20, r8
    132e:	0e 94 76 0a 	call	0x14ec	; 0x14ec <__ultoa_invert>
    1332:	a8 2e       	mov	r10, r24
    1334:	a8 18       	sub	r10, r8
    1336:	fb 2d       	mov	r31, r11
    1338:	ff 77       	andi	r31, 0x7F	; 127
    133a:	7f 2e       	mov	r7, r31
    133c:	76 fe       	sbrs	r7, 6
    133e:	0b c0       	rjmp	.+22     	; 0x1356 <vfprintf+0x2aa>
    1340:	37 2d       	mov	r19, r7
    1342:	3e 7f       	andi	r19, 0xFE	; 254
    1344:	a5 14       	cp	r10, r5
    1346:	50 f4       	brcc	.+20     	; 0x135c <vfprintf+0x2b0>
    1348:	74 fe       	sbrs	r7, 4
    134a:	0a c0       	rjmp	.+20     	; 0x1360 <vfprintf+0x2b4>
    134c:	72 fc       	sbrc	r7, 2
    134e:	08 c0       	rjmp	.+16     	; 0x1360 <vfprintf+0x2b4>
    1350:	37 2d       	mov	r19, r7
    1352:	3e 7e       	andi	r19, 0xEE	; 238
    1354:	05 c0       	rjmp	.+10     	; 0x1360 <vfprintf+0x2b4>
    1356:	ba 2c       	mov	r11, r10
    1358:	37 2d       	mov	r19, r7
    135a:	03 c0       	rjmp	.+6      	; 0x1362 <vfprintf+0x2b6>
    135c:	ba 2c       	mov	r11, r10
    135e:	01 c0       	rjmp	.+2      	; 0x1362 <vfprintf+0x2b6>
    1360:	b5 2c       	mov	r11, r5
    1362:	34 ff       	sbrs	r19, 4
    1364:	0d c0       	rjmp	.+26     	; 0x1380 <vfprintf+0x2d4>
    1366:	fe 01       	movw	r30, r28
    1368:	ea 0d       	add	r30, r10
    136a:	f1 1d       	adc	r31, r1
    136c:	80 81       	ld	r24, Z
    136e:	80 33       	cpi	r24, 0x30	; 48
    1370:	11 f4       	brne	.+4      	; 0x1376 <vfprintf+0x2ca>
    1372:	39 7e       	andi	r19, 0xE9	; 233
    1374:	09 c0       	rjmp	.+18     	; 0x1388 <vfprintf+0x2dc>
    1376:	32 ff       	sbrs	r19, 2
    1378:	06 c0       	rjmp	.+12     	; 0x1386 <vfprintf+0x2da>
    137a:	b3 94       	inc	r11
    137c:	b3 94       	inc	r11
    137e:	04 c0       	rjmp	.+8      	; 0x1388 <vfprintf+0x2dc>
    1380:	83 2f       	mov	r24, r19
    1382:	86 78       	andi	r24, 0x86	; 134
    1384:	09 f0       	breq	.+2      	; 0x1388 <vfprintf+0x2dc>
    1386:	b3 94       	inc	r11
    1388:	33 fd       	sbrc	r19, 3
    138a:	13 c0       	rjmp	.+38     	; 0x13b2 <vfprintf+0x306>
    138c:	30 ff       	sbrs	r19, 0
    138e:	06 c0       	rjmp	.+12     	; 0x139c <vfprintf+0x2f0>
    1390:	5a 2c       	mov	r5, r10
    1392:	b3 14       	cp	r11, r3
    1394:	18 f4       	brcc	.+6      	; 0x139c <vfprintf+0x2f0>
    1396:	53 0c       	add	r5, r3
    1398:	5b 18       	sub	r5, r11
    139a:	b3 2c       	mov	r11, r3
    139c:	b3 14       	cp	r11, r3
    139e:	68 f4       	brcc	.+26     	; 0x13ba <vfprintf+0x30e>
    13a0:	b7 01       	movw	r22, r14
    13a2:	80 e2       	ldi	r24, 0x20	; 32
    13a4:	90 e0       	ldi	r25, 0x00	; 0
    13a6:	3c 87       	std	Y+12, r19	; 0x0c
    13a8:	0e 94 3e 0a 	call	0x147c	; 0x147c <fputc>
    13ac:	b3 94       	inc	r11
    13ae:	3c 85       	ldd	r19, Y+12	; 0x0c
    13b0:	f5 cf       	rjmp	.-22     	; 0x139c <vfprintf+0x2f0>
    13b2:	b3 14       	cp	r11, r3
    13b4:	10 f4       	brcc	.+4      	; 0x13ba <vfprintf+0x30e>
    13b6:	3b 18       	sub	r3, r11
    13b8:	01 c0       	rjmp	.+2      	; 0x13bc <vfprintf+0x310>
    13ba:	31 2c       	mov	r3, r1
    13bc:	34 ff       	sbrs	r19, 4
    13be:	12 c0       	rjmp	.+36     	; 0x13e4 <vfprintf+0x338>
    13c0:	b7 01       	movw	r22, r14
    13c2:	80 e3       	ldi	r24, 0x30	; 48
    13c4:	90 e0       	ldi	r25, 0x00	; 0
    13c6:	3c 87       	std	Y+12, r19	; 0x0c
    13c8:	0e 94 3e 0a 	call	0x147c	; 0x147c <fputc>
    13cc:	3c 85       	ldd	r19, Y+12	; 0x0c
    13ce:	32 ff       	sbrs	r19, 2
    13d0:	17 c0       	rjmp	.+46     	; 0x1400 <vfprintf+0x354>
    13d2:	31 fd       	sbrc	r19, 1
    13d4:	03 c0       	rjmp	.+6      	; 0x13dc <vfprintf+0x330>
    13d6:	88 e7       	ldi	r24, 0x78	; 120
    13d8:	90 e0       	ldi	r25, 0x00	; 0
    13da:	02 c0       	rjmp	.+4      	; 0x13e0 <vfprintf+0x334>
    13dc:	88 e5       	ldi	r24, 0x58	; 88
    13de:	90 e0       	ldi	r25, 0x00	; 0
    13e0:	b7 01       	movw	r22, r14
    13e2:	0c c0       	rjmp	.+24     	; 0x13fc <vfprintf+0x350>
    13e4:	83 2f       	mov	r24, r19
    13e6:	86 78       	andi	r24, 0x86	; 134
    13e8:	59 f0       	breq	.+22     	; 0x1400 <vfprintf+0x354>
    13ea:	31 ff       	sbrs	r19, 1
    13ec:	02 c0       	rjmp	.+4      	; 0x13f2 <vfprintf+0x346>
    13ee:	8b e2       	ldi	r24, 0x2B	; 43
    13f0:	01 c0       	rjmp	.+2      	; 0x13f4 <vfprintf+0x348>
    13f2:	80 e2       	ldi	r24, 0x20	; 32
    13f4:	37 fd       	sbrc	r19, 7
    13f6:	8d e2       	ldi	r24, 0x2D	; 45
    13f8:	b7 01       	movw	r22, r14
    13fa:	90 e0       	ldi	r25, 0x00	; 0
    13fc:	0e 94 3e 0a 	call	0x147c	; 0x147c <fputc>
    1400:	a5 14       	cp	r10, r5
    1402:	38 f4       	brcc	.+14     	; 0x1412 <vfprintf+0x366>
    1404:	b7 01       	movw	r22, r14
    1406:	80 e3       	ldi	r24, 0x30	; 48
    1408:	90 e0       	ldi	r25, 0x00	; 0
    140a:	0e 94 3e 0a 	call	0x147c	; 0x147c <fputc>
    140e:	5a 94       	dec	r5
    1410:	f7 cf       	rjmp	.-18     	; 0x1400 <vfprintf+0x354>
    1412:	aa 94       	dec	r10
    1414:	f4 01       	movw	r30, r8
    1416:	ea 0d       	add	r30, r10
    1418:	f1 1d       	adc	r31, r1
    141a:	80 81       	ld	r24, Z
    141c:	b7 01       	movw	r22, r14
    141e:	90 e0       	ldi	r25, 0x00	; 0
    1420:	0e 94 3e 0a 	call	0x147c	; 0x147c <fputc>
    1424:	a1 10       	cpse	r10, r1
    1426:	f5 cf       	rjmp	.-22     	; 0x1412 <vfprintf+0x366>
    1428:	33 20       	and	r3, r3
    142a:	09 f4       	brne	.+2      	; 0x142e <vfprintf+0x382>
    142c:	51 ce       	rjmp	.-862    	; 0x10d0 <vfprintf+0x24>
    142e:	b7 01       	movw	r22, r14
    1430:	80 e2       	ldi	r24, 0x20	; 32
    1432:	90 e0       	ldi	r25, 0x00	; 0
    1434:	0e 94 3e 0a 	call	0x147c	; 0x147c <fputc>
    1438:	3a 94       	dec	r3
    143a:	f6 cf       	rjmp	.-20     	; 0x1428 <vfprintf+0x37c>
    143c:	f7 01       	movw	r30, r14
    143e:	86 81       	ldd	r24, Z+6	; 0x06
    1440:	97 81       	ldd	r25, Z+7	; 0x07
    1442:	02 c0       	rjmp	.+4      	; 0x1448 <vfprintf+0x39c>
    1444:	8f ef       	ldi	r24, 0xFF	; 255
    1446:	9f ef       	ldi	r25, 0xFF	; 255
    1448:	2c 96       	adiw	r28, 0x0c	; 12
    144a:	e2 e1       	ldi	r30, 0x12	; 18
    144c:	0c 94 f0 0a 	jmp	0x15e0	; 0x15e0 <__epilogue_restores__>

00001450 <strnlen_P>:
    1450:	fc 01       	movw	r30, r24
    1452:	05 90       	lpm	r0, Z+
    1454:	61 50       	subi	r22, 0x01	; 1
    1456:	70 40       	sbci	r23, 0x00	; 0
    1458:	01 10       	cpse	r0, r1
    145a:	d8 f7       	brcc	.-10     	; 0x1452 <strnlen_P+0x2>
    145c:	80 95       	com	r24
    145e:	90 95       	com	r25
    1460:	8e 0f       	add	r24, r30
    1462:	9f 1f       	adc	r25, r31
    1464:	08 95       	ret

00001466 <strnlen>:
    1466:	fc 01       	movw	r30, r24
    1468:	61 50       	subi	r22, 0x01	; 1
    146a:	70 40       	sbci	r23, 0x00	; 0
    146c:	01 90       	ld	r0, Z+
    146e:	01 10       	cpse	r0, r1
    1470:	d8 f7       	brcc	.-10     	; 0x1468 <strnlen+0x2>
    1472:	80 95       	com	r24
    1474:	90 95       	com	r25
    1476:	8e 0f       	add	r24, r30
    1478:	9f 1f       	adc	r25, r31
    147a:	08 95       	ret

0000147c <fputc>:
    147c:	0f 93       	push	r16
    147e:	1f 93       	push	r17
    1480:	cf 93       	push	r28
    1482:	df 93       	push	r29
    1484:	fb 01       	movw	r30, r22
    1486:	23 81       	ldd	r18, Z+3	; 0x03
    1488:	21 fd       	sbrc	r18, 1
    148a:	03 c0       	rjmp	.+6      	; 0x1492 <fputc+0x16>
    148c:	8f ef       	ldi	r24, 0xFF	; 255
    148e:	9f ef       	ldi	r25, 0xFF	; 255
    1490:	28 c0       	rjmp	.+80     	; 0x14e2 <fputc+0x66>
    1492:	22 ff       	sbrs	r18, 2
    1494:	16 c0       	rjmp	.+44     	; 0x14c2 <fputc+0x46>
    1496:	46 81       	ldd	r20, Z+6	; 0x06
    1498:	57 81       	ldd	r21, Z+7	; 0x07
    149a:	24 81       	ldd	r18, Z+4	; 0x04
    149c:	35 81       	ldd	r19, Z+5	; 0x05
    149e:	42 17       	cp	r20, r18
    14a0:	53 07       	cpc	r21, r19
    14a2:	44 f4       	brge	.+16     	; 0x14b4 <fputc+0x38>
    14a4:	a0 81       	ld	r26, Z
    14a6:	b1 81       	ldd	r27, Z+1	; 0x01
    14a8:	9d 01       	movw	r18, r26
    14aa:	2f 5f       	subi	r18, 0xFF	; 255
    14ac:	3f 4f       	sbci	r19, 0xFF	; 255
    14ae:	31 83       	std	Z+1, r19	; 0x01
    14b0:	20 83       	st	Z, r18
    14b2:	8c 93       	st	X, r24
    14b4:	26 81       	ldd	r18, Z+6	; 0x06
    14b6:	37 81       	ldd	r19, Z+7	; 0x07
    14b8:	2f 5f       	subi	r18, 0xFF	; 255
    14ba:	3f 4f       	sbci	r19, 0xFF	; 255
    14bc:	37 83       	std	Z+7, r19	; 0x07
    14be:	26 83       	std	Z+6, r18	; 0x06
    14c0:	10 c0       	rjmp	.+32     	; 0x14e2 <fputc+0x66>
    14c2:	eb 01       	movw	r28, r22
    14c4:	09 2f       	mov	r16, r25
    14c6:	18 2f       	mov	r17, r24
    14c8:	00 84       	ldd	r0, Z+8	; 0x08
    14ca:	f1 85       	ldd	r31, Z+9	; 0x09
    14cc:	e0 2d       	mov	r30, r0
    14ce:	09 95       	icall
    14d0:	89 2b       	or	r24, r25
    14d2:	e1 f6       	brne	.-72     	; 0x148c <fputc+0x10>
    14d4:	8e 81       	ldd	r24, Y+6	; 0x06
    14d6:	9f 81       	ldd	r25, Y+7	; 0x07
    14d8:	01 96       	adiw	r24, 0x01	; 1
    14da:	9f 83       	std	Y+7, r25	; 0x07
    14dc:	8e 83       	std	Y+6, r24	; 0x06
    14de:	81 2f       	mov	r24, r17
    14e0:	90 2f       	mov	r25, r16
    14e2:	df 91       	pop	r29
    14e4:	cf 91       	pop	r28
    14e6:	1f 91       	pop	r17
    14e8:	0f 91       	pop	r16
    14ea:	08 95       	ret

000014ec <__ultoa_invert>:
    14ec:	fa 01       	movw	r30, r20
    14ee:	aa 27       	eor	r26, r26
    14f0:	28 30       	cpi	r18, 0x08	; 8
    14f2:	51 f1       	breq	.+84     	; 0x1548 <__ultoa_invert+0x5c>
    14f4:	20 31       	cpi	r18, 0x10	; 16
    14f6:	81 f1       	breq	.+96     	; 0x1558 <__ultoa_invert+0x6c>
    14f8:	e8 94       	clt
    14fa:	6f 93       	push	r22
    14fc:	6e 7f       	andi	r22, 0xFE	; 254
    14fe:	6e 5f       	subi	r22, 0xFE	; 254
    1500:	7f 4f       	sbci	r23, 0xFF	; 255
    1502:	8f 4f       	sbci	r24, 0xFF	; 255
    1504:	9f 4f       	sbci	r25, 0xFF	; 255
    1506:	af 4f       	sbci	r26, 0xFF	; 255
    1508:	b1 e0       	ldi	r27, 0x01	; 1
    150a:	3e d0       	rcall	.+124    	; 0x1588 <__ultoa_invert+0x9c>
    150c:	b4 e0       	ldi	r27, 0x04	; 4
    150e:	3c d0       	rcall	.+120    	; 0x1588 <__ultoa_invert+0x9c>
    1510:	67 0f       	add	r22, r23
    1512:	78 1f       	adc	r23, r24
    1514:	89 1f       	adc	r24, r25
    1516:	9a 1f       	adc	r25, r26
    1518:	a1 1d       	adc	r26, r1
    151a:	68 0f       	add	r22, r24
    151c:	79 1f       	adc	r23, r25
    151e:	8a 1f       	adc	r24, r26
    1520:	91 1d       	adc	r25, r1
    1522:	a1 1d       	adc	r26, r1
    1524:	6a 0f       	add	r22, r26
    1526:	71 1d       	adc	r23, r1
    1528:	81 1d       	adc	r24, r1
    152a:	91 1d       	adc	r25, r1
    152c:	a1 1d       	adc	r26, r1
    152e:	20 d0       	rcall	.+64     	; 0x1570 <__ultoa_invert+0x84>
    1530:	09 f4       	brne	.+2      	; 0x1534 <__ultoa_invert+0x48>
    1532:	68 94       	set
    1534:	3f 91       	pop	r19
    1536:	2a e0       	ldi	r18, 0x0A	; 10
    1538:	26 9f       	mul	r18, r22
    153a:	11 24       	eor	r1, r1
    153c:	30 19       	sub	r19, r0
    153e:	30 5d       	subi	r19, 0xD0	; 208
    1540:	31 93       	st	Z+, r19
    1542:	de f6       	brtc	.-74     	; 0x14fa <__ultoa_invert+0xe>
    1544:	cf 01       	movw	r24, r30
    1546:	08 95       	ret
    1548:	46 2f       	mov	r20, r22
    154a:	47 70       	andi	r20, 0x07	; 7
    154c:	40 5d       	subi	r20, 0xD0	; 208
    154e:	41 93       	st	Z+, r20
    1550:	b3 e0       	ldi	r27, 0x03	; 3
    1552:	0f d0       	rcall	.+30     	; 0x1572 <__ultoa_invert+0x86>
    1554:	c9 f7       	brne	.-14     	; 0x1548 <__ultoa_invert+0x5c>
    1556:	f6 cf       	rjmp	.-20     	; 0x1544 <__ultoa_invert+0x58>
    1558:	46 2f       	mov	r20, r22
    155a:	4f 70       	andi	r20, 0x0F	; 15
    155c:	40 5d       	subi	r20, 0xD0	; 208
    155e:	4a 33       	cpi	r20, 0x3A	; 58
    1560:	18 f0       	brcs	.+6      	; 0x1568 <__ultoa_invert+0x7c>
    1562:	49 5d       	subi	r20, 0xD9	; 217
    1564:	31 fd       	sbrc	r19, 1
    1566:	40 52       	subi	r20, 0x20	; 32
    1568:	41 93       	st	Z+, r20
    156a:	02 d0       	rcall	.+4      	; 0x1570 <__ultoa_invert+0x84>
    156c:	a9 f7       	brne	.-22     	; 0x1558 <__ultoa_invert+0x6c>
    156e:	ea cf       	rjmp	.-44     	; 0x1544 <__ultoa_invert+0x58>
    1570:	b4 e0       	ldi	r27, 0x04	; 4
    1572:	a6 95       	lsr	r26
    1574:	97 95       	ror	r25
    1576:	87 95       	ror	r24
    1578:	77 95       	ror	r23
    157a:	67 95       	ror	r22
    157c:	ba 95       	dec	r27
    157e:	c9 f7       	brne	.-14     	; 0x1572 <__ultoa_invert+0x86>
    1580:	00 97       	sbiw	r24, 0x00	; 0
    1582:	61 05       	cpc	r22, r1
    1584:	71 05       	cpc	r23, r1
    1586:	08 95       	ret
    1588:	9b 01       	movw	r18, r22
    158a:	ac 01       	movw	r20, r24
    158c:	0a 2e       	mov	r0, r26
    158e:	06 94       	lsr	r0
    1590:	57 95       	ror	r21
    1592:	47 95       	ror	r20
    1594:	37 95       	ror	r19
    1596:	27 95       	ror	r18
    1598:	ba 95       	dec	r27
    159a:	c9 f7       	brne	.-14     	; 0x158e <__ultoa_invert+0xa2>
    159c:	62 0f       	add	r22, r18
    159e:	73 1f       	adc	r23, r19
    15a0:	84 1f       	adc	r24, r20
    15a2:	95 1f       	adc	r25, r21
    15a4:	a0 1d       	adc	r26, r0
    15a6:	08 95       	ret

000015a8 <__prologue_saves__>:
    15a8:	2f 92       	push	r2
    15aa:	3f 92       	push	r3
    15ac:	4f 92       	push	r4
    15ae:	5f 92       	push	r5
    15b0:	6f 92       	push	r6
    15b2:	7f 92       	push	r7
    15b4:	8f 92       	push	r8
    15b6:	9f 92       	push	r9
    15b8:	af 92       	push	r10
    15ba:	bf 92       	push	r11
    15bc:	cf 92       	push	r12
    15be:	df 92       	push	r13
    15c0:	ef 92       	push	r14
    15c2:	ff 92       	push	r15
    15c4:	0f 93       	push	r16
    15c6:	1f 93       	push	r17
    15c8:	cf 93       	push	r28
    15ca:	df 93       	push	r29
    15cc:	cd b7       	in	r28, 0x3d	; 61
    15ce:	de b7       	in	r29, 0x3e	; 62
    15d0:	ca 1b       	sub	r28, r26
    15d2:	db 0b       	sbc	r29, r27
    15d4:	0f b6       	in	r0, 0x3f	; 63
    15d6:	f8 94       	cli
    15d8:	de bf       	out	0x3e, r29	; 62
    15da:	0f be       	out	0x3f, r0	; 63
    15dc:	cd bf       	out	0x3d, r28	; 61
    15de:	09 94       	ijmp

000015e0 <__epilogue_restores__>:
    15e0:	2a 88       	ldd	r2, Y+18	; 0x12
    15e2:	39 88       	ldd	r3, Y+17	; 0x11
    15e4:	48 88       	ldd	r4, Y+16	; 0x10
    15e6:	5f 84       	ldd	r5, Y+15	; 0x0f
    15e8:	6e 84       	ldd	r6, Y+14	; 0x0e
    15ea:	7d 84       	ldd	r7, Y+13	; 0x0d
    15ec:	8c 84       	ldd	r8, Y+12	; 0x0c
    15ee:	9b 84       	ldd	r9, Y+11	; 0x0b
    15f0:	aa 84       	ldd	r10, Y+10	; 0x0a
    15f2:	b9 84       	ldd	r11, Y+9	; 0x09
    15f4:	c8 84       	ldd	r12, Y+8	; 0x08
    15f6:	df 80       	ldd	r13, Y+7	; 0x07
    15f8:	ee 80       	ldd	r14, Y+6	; 0x06
    15fa:	fd 80       	ldd	r15, Y+5	; 0x05
    15fc:	0c 81       	ldd	r16, Y+4	; 0x04
    15fe:	1b 81       	ldd	r17, Y+3	; 0x03
    1600:	aa 81       	ldd	r26, Y+2	; 0x02
    1602:	b9 81       	ldd	r27, Y+1	; 0x01
    1604:	ce 0f       	add	r28, r30
    1606:	d1 1d       	adc	r29, r1
    1608:	0f b6       	in	r0, 0x3f	; 63
    160a:	f8 94       	cli
    160c:	de bf       	out	0x3e, r29	; 62
    160e:	0f be       	out	0x3f, r0	; 63
    1610:	cd bf       	out	0x3d, r28	; 61
    1612:	ed 01       	movw	r28, r26
    1614:	08 95       	ret

00001616 <_exit>:
    1616:	f8 94       	cli

00001618 <__stop_program>:
    1618:	ff cf       	rjmp	.-2      	; 0x1618 <__stop_program>
