
ICD_main_robot.elf:     file format elf32-avr

Sections:
Idx Name          Size      VMA       LMA       File off  Algn
  0 .data         00000184  00800100  00001f28  00001fbc  2**0
                  CONTENTS, ALLOC, LOAD, DATA
  1 .text         00001f28  00000000  00000000  00000094  2**1
                  CONTENTS, ALLOC, LOAD, READONLY, CODE
  2 .bss          00000073  00800284  00800284  00002140  2**0
                  ALLOC
  3 .comment      0000005c  00000000  00000000  00002140  2**0
                  CONTENTS, READONLY
  4 .note.gnu.avr.deviceinfo 00000040  00000000  00000000  0000219c  2**2
                  CONTENTS, READONLY
  5 .debug_aranges 00000240  00000000  00000000  000021dc  2**0
                  CONTENTS, READONLY, DEBUGGING
  6 .debug_info   00002594  00000000  00000000  0000241c  2**0
                  CONTENTS, READONLY, DEBUGGING
  7 .debug_abbrev 0000087f  00000000  00000000  000049b0  2**0
                  CONTENTS, READONLY, DEBUGGING
  8 .debug_line   00000e24  00000000  00000000  0000522f  2**0
                  CONTENTS, READONLY, DEBUGGING
  9 .debug_frame  00000794  00000000  00000000  00006054  2**2
                  CONTENTS, READONLY, DEBUGGING
 10 .debug_str    00000983  00000000  00000000  000067e8  2**0
                  CONTENTS, READONLY, DEBUGGING
 11 .debug_loc    000027eb  00000000  00000000  0000716b  2**0
                  CONTENTS, READONLY, DEBUGGING
 12 .debug_ranges 00000268  00000000  00000000  00009956  2**0
                  CONTENTS, READONLY, DEBUGGING

Disassembly of section .text:

00000000 <__vectors>:
       0:	0c 94 be 00 	jmp	0x17c	; 0x17c <__ctors_end>
       4:	0c 94 db 00 	jmp	0x1b6	; 0x1b6 <__bad_interrupt>
       8:	0c 94 db 00 	jmp	0x1b6	; 0x1b6 <__bad_interrupt>
       c:	0c 94 db 00 	jmp	0x1b6	; 0x1b6 <__bad_interrupt>
      10:	0c 94 db 00 	jmp	0x1b6	; 0x1b6 <__bad_interrupt>
      14:	0c 94 db 00 	jmp	0x1b6	; 0x1b6 <__bad_interrupt>
      18:	0c 94 db 00 	jmp	0x1b6	; 0x1b6 <__bad_interrupt>
      1c:	0c 94 db 00 	jmp	0x1b6	; 0x1b6 <__bad_interrupt>
      20:	0c 94 db 00 	jmp	0x1b6	; 0x1b6 <__bad_interrupt>
      24:	0c 94 db 00 	jmp	0x1b6	; 0x1b6 <__bad_interrupt>
      28:	0c 94 91 0a 	jmp	0x1522	; 0x1522 <__vector_10>
      2c:	0c 94 cf 0a 	jmp	0x159e	; 0x159e <__vector_11>
      30:	0c 94 db 00 	jmp	0x1b6	; 0x1b6 <__bad_interrupt>
      34:	0c 94 db 00 	jmp	0x1b6	; 0x1b6 <__bad_interrupt>
      38:	0c 94 db 00 	jmp	0x1b6	; 0x1b6 <__bad_interrupt>
      3c:	0c 94 db 00 	jmp	0x1b6	; 0x1b6 <__bad_interrupt>
      40:	0c 94 db 00 	jmp	0x1b6	; 0x1b6 <__bad_interrupt>
      44:	0c 94 db 00 	jmp	0x1b6	; 0x1b6 <__bad_interrupt>
      48:	0c 94 db 00 	jmp	0x1b6	; 0x1b6 <__bad_interrupt>
      4c:	0c 94 db 00 	jmp	0x1b6	; 0x1b6 <__bad_interrupt>
      50:	0c 94 db 00 	jmp	0x1b6	; 0x1b6 <__bad_interrupt>
      54:	0c 94 d2 07 	jmp	0xfa4	; 0xfa4 <__vector_21>
      58:	0c 94 db 00 	jmp	0x1b6	; 0x1b6 <__bad_interrupt>
      5c:	0c 94 db 00 	jmp	0x1b6	; 0x1b6 <__bad_interrupt>
      60:	0c 94 db 00 	jmp	0x1b6	; 0x1b6 <__bad_interrupt>
      64:	0c 94 db 00 	jmp	0x1b6	; 0x1b6 <__bad_interrupt>
      68:	0c 94 db 00 	jmp	0x1b6	; 0x1b6 <__bad_interrupt>
      6c:	0c 94 db 00 	jmp	0x1b6	; 0x1b6 <__bad_interrupt>
      70:	0c 94 db 00 	jmp	0x1b6	; 0x1b6 <__bad_interrupt>
      74:	0c 94 db 00 	jmp	0x1b6	; 0x1b6 <__bad_interrupt>
      78:	0c 94 db 00 	jmp	0x1b6	; 0x1b6 <__bad_interrupt>
      7c:	0c 94 db 00 	jmp	0x1b6	; 0x1b6 <__bad_interrupt>
      80:	0c 94 db 00 	jmp	0x1b6	; 0x1b6 <__bad_interrupt>
      84:	0c 94 db 00 	jmp	0x1b6	; 0x1b6 <__bad_interrupt>
      88:	0c 94 db 00 	jmp	0x1b6	; 0x1b6 <__bad_interrupt>
      8c:	0c 94 db 00 	jmp	0x1b6	; 0x1b6 <__bad_interrupt>
      90:	0c 94 db 00 	jmp	0x1b6	; 0x1b6 <__bad_interrupt>
      94:	0c 94 db 00 	jmp	0x1b6	; 0x1b6 <__bad_interrupt>
      98:	0c 94 db 00 	jmp	0x1b6	; 0x1b6 <__bad_interrupt>
      9c:	0c 94 db 00 	jmp	0x1b6	; 0x1b6 <__bad_interrupt>
      a0:	0c 94 db 00 	jmp	0x1b6	; 0x1b6 <__bad_interrupt>
      a4:	0c 94 db 00 	jmp	0x1b6	; 0x1b6 <__bad_interrupt>
      a8:	0c 94 db 00 	jmp	0x1b6	; 0x1b6 <__bad_interrupt>

000000ac <__trampolines_end>:
      ac:	00 01       	movw	r0, r0
      ae:	00 00       	nop
      b0:	5f 01       	movw	r10, r30
      b2:	12 00       	.word	0x0012	; ????
      b4:	02 00       	.word	0x0002	; ????
      b6:	00 1c       	adc	r0, r0
      b8:	01 43       	sbci	r16, 0x31	; 49
      ba:	00 03       	mulsu	r16, r16
      bc:	00 00       	nop
      be:	18 01       	movw	r2, r16
      c0:	04 01       	movw	r0, r8
      c2:	03 09       	sbc	r16, r3
      c4:	04 fa       	bst	r0, 4
      c6:	00 1c       	adc	r0, r0
      c8:	02 03       	mulsu	r16, r18
      ca:	09 04       	cpc	r0, r9
      cc:	e4 00       	.word	0x00e4	; ????
      ce:	14 03       	mulsu	r17, r20
      d0:	03 09       	sbc	r16, r3
      d2:	04 d6       	rcall	.+3080   	; 0xcdc <__stack+0x1dd>
      d4:	00 0c       	add	r0, r0

000000d6 <string3>:
      d6:	0c 03 31 00 32 00 33 00 34 00 35 00 00 00           ..1.2.3.4.5...

000000e4 <string2>:
      e4:	14 03 54 00 65 00 73 00 74 00 42 00 65 00 6e 00     ..T.e.s.t.B.e.n.
      f4:	63 00 68 00 00 00                                   c.h...

000000fa <string1>:
      fa:	1c 03 4c 00 61 00 75 00 72 00 69 00 20 00 4d 00     ..L.a.u.r.i. .M.
     10a:	69 00 68 00 6b 00 65 00 6c 00 73 00 00 00           i.h.k.e.l.s...

00000118 <string0>:
     118:	04 03 09 04                                         ....

0000011c <config1_descriptor>:
     11c:	09 02 43 00 02 01 00 c0 32 09 04 00 00 01 02 02     ..C.....2.......
     12c:	01 00 05 24 00 10 01 05 24 01 01 01 04 24 02 06     ...$....$....$..
     13c:	05 24 06 00 01 07 05 82 03 10 00 40 09 04 01 00     .$.........@....
     14c:	02 0a 00 00 00 07 05 03 02 40 00 00 07 05 84 02     .........@......
     15c:	40 00 00                                            @..

0000015f <device_descriptor>:
     15f:	12 01 00 02 02 00 00 10 c0 16 7a 04 00 01 01 02     ..........z.....
     16f:	03 01                                               ..

00000171 <endpoint_config_table>:
     171:	00 01 c1 12 01 80 36 01 81 36 00                    ......6..6.

0000017c <__ctors_end>:
     17c:	11 24       	eor	r1, r1
     17e:	1f be       	out	0x3f, r1	; 63
     180:	cf ef       	ldi	r28, 0xFF	; 255
     182:	da e0       	ldi	r29, 0x0A	; 10
     184:	de bf       	out	0x3e, r29	; 62
     186:	cd bf       	out	0x3d, r28	; 61

00000188 <__do_copy_data>:
     188:	12 e0       	ldi	r17, 0x02	; 2
     18a:	a0 e0       	ldi	r26, 0x00	; 0
     18c:	b1 e0       	ldi	r27, 0x01	; 1
     18e:	e8 e2       	ldi	r30, 0x28	; 40
     190:	ff e1       	ldi	r31, 0x1F	; 31
     192:	02 c0       	rjmp	.+4      	; 0x198 <__do_copy_data+0x10>
     194:	05 90       	lpm	r0, Z+
     196:	0d 92       	st	X+, r0
     198:	a4 38       	cpi	r26, 0x84	; 132
     19a:	b1 07       	cpc	r27, r17
     19c:	d9 f7       	brne	.-10     	; 0x194 <__do_copy_data+0xc>

0000019e <__do_clear_bss>:
     19e:	22 e0       	ldi	r18, 0x02	; 2
     1a0:	a4 e8       	ldi	r26, 0x84	; 132
     1a2:	b2 e0       	ldi	r27, 0x02	; 2
     1a4:	01 c0       	rjmp	.+2      	; 0x1a8 <.do_clear_bss_start>

000001a6 <.do_clear_bss_loop>:
     1a6:	1d 92       	st	X+, r1

000001a8 <.do_clear_bss_start>:
     1a8:	a7 3f       	cpi	r26, 0xF7	; 247
     1aa:	b2 07       	cpc	r27, r18
     1ac:	e1 f7       	brne	.-8      	; 0x1a6 <.do_clear_bss_loop>
     1ae:	0e 94 08 05 	call	0xa10	; 0xa10 <main>
     1b2:	0c 94 92 0f 	jmp	0x1f24	; 0x1f24 <_exit>

000001b6 <__bad_interrupt>:
     1b6:	0c 94 00 00 	jmp	0	; 0x0 <__vectors>

000001ba <init_ports_and_pins>:
*******************************************************************/

//Related to initialization
void init_ports_and_pins(){
	//disable JTAG, needed to use some of the pins on the MCU
	MCUCR|= (1<<JTD); //in order to change this value, it is needed to 
     1ba:	85 b7       	in	r24, 0x35	; 53
     1bc:	80 68       	ori	r24, 0x80	; 128
     1be:	85 bf       	out	0x35, r24	; 53
	MCUCR|= (1<<JTD); //overwrite this value twice during 4 clock cycles
     1c0:	85 b7       	in	r24, 0x35	; 53
     1c2:	80 68       	ori	r24, 0x80	; 128
     1c4:	85 bf       	out	0x35, r24	; 53
	   
	DDRF = 0b11110011; //LEDs
     1c6:	83 ef       	ldi	r24, 0xF3	; 243
     1c8:	80 bb       	out	0x10, r24	; 16
	PORTF = 255; //swich LEDs off by default
     1ca:	8f ef       	ldi	r24, 0xFF	; 255
     1cc:	81 bb       	out	0x11, r24	; 17
	
	DDRB |= (1 << PIN_MOTOR_1) | (1 << PIN_MOTOR_2);
     1ce:	84 b1       	in	r24, 0x04	; 4
     1d0:	80 66       	ori	r24, 0x60	; 96
     1d2:	84 b9       	out	0x04, r24	; 4
	
	//Coilgun
	DDRD |= (1 << PIN_COILGUN_KICK) | (1 << PIN_COILGUN_CHARGE);
     1d4:	8a b1       	in	r24, 0x0a	; 10
     1d6:	80 63       	ori	r24, 0x30	; 48
     1d8:	8a b9       	out	0x0a, r24	; 10
	DDRC |= (1 << PIN_COILGUN_PWM);
     1da:	3e 9a       	sbi	0x07, 6	; 7
	
	//UART pins (rs485)
	DDRD |= (1 << 6) | (1 << 7);
     1dc:	8a b1       	in	r24, 0x0a	; 10
     1de:	80 6c       	ori	r24, 0xC0	; 192
     1e0:	8a b9       	out	0x0a, r24	; 10
	//Enabling receive and transmit (on the rs485 chip)
	PORTD |= (1 << 6);
     1e2:	5e 9a       	sbi	0x0b, 6	; 11
	PORTD &= ~(1 << 7);
     1e4:	5f 98       	cbi	0x0b, 7	; 11
     1e6:	08 95       	ret

000001e8 <init_timers>:
	
}

void init_timers(){
	//init timer 0
	TCCR0A = 0b00000010;
     1e8:	82 e0       	ldi	r24, 0x02	; 2
     1ea:	84 bd       	out	0x24, r24	; 36
	TCCR0B = 0b00000101; //prescale 1024
     1ec:	95 e0       	ldi	r25, 0x05	; 5
     1ee:	95 bd       	out	0x25, r25	; 37
	OCR0A = 250;
     1f0:	9a ef       	ldi	r25, 0xFA	; 250
     1f2:	97 bd       	out	0x27, r25	; 39
	TIMSK0 = 0b00000010;
     1f4:	80 93 6e 00 	sts	0x006E, r24
	TCNT0 = 0;
     1f8:	16 bc       	out	0x26, r1	; 38
	
	//Setup PWM
	//Configure TIMER1
	TCCR1A|=(1<<COM1A1)|(1<<COM1B1)|(1<<WGM11);        //NON Inverted PWM
     1fa:	e0 e8       	ldi	r30, 0x80	; 128
     1fc:	f0 e0       	ldi	r31, 0x00	; 0
     1fe:	80 81       	ld	r24, Z
     200:	82 6a       	ori	r24, 0xA2	; 162
     202:	80 83       	st	Z, r24
	TCCR1B|=(1<<WGM13)|(1<<WGM12)|(1<<CS11)|(1<<CS10); //PRESCALER=64 MODE 14(FAST PWM)
     204:	e1 e8       	ldi	r30, 0x81	; 129
     206:	f0 e0       	ldi	r31, 0x00	; 0
     208:	80 81       	ld	r24, Z
     20a:	8b 61       	ori	r24, 0x1B	; 27
     20c:	80 83       	st	Z, r24

	ICR1=4999;  //fPWM=50Hz (Period = 20ms Standard).
     20e:	87 e8       	ldi	r24, 0x87	; 135
     210:	93 e1       	ldi	r25, 0x13	; 19
     212:	90 93 87 00 	sts	0x0087, r25
     216:	80 93 86 00 	sts	0x0086, r24
     21a:	08 95       	ret

0000021c <setLED>:

}

//LED control
void setLED(_Bool led, _Bool r, _Bool g, _Bool b){
	if(led){
     21c:	88 23       	and	r24, r24
     21e:	81 f0       	breq	.+32     	; 0x240 <setLED+0x24>
		if(!r) PORTF |= (1 << PIN_LED_1_R); else PORTF &= ~(1 << PIN_LED_1_R);
     220:	61 11       	cpse	r22, r1
     222:	02 c0       	rjmp	.+4      	; 0x228 <setLED+0xc>
     224:	89 9a       	sbi	0x11, 1	; 17
     226:	01 c0       	rjmp	.+2      	; 0x22a <setLED+0xe>
     228:	89 98       	cbi	0x11, 1	; 17
		if(!g) PORTF |= (1 << PIN_LED_1_G); else PORTF &= ~(1 << PIN_LED_1_G);
     22a:	41 11       	cpse	r20, r1
     22c:	02 c0       	rjmp	.+4      	; 0x232 <setLED+0x16>
     22e:	88 9a       	sbi	0x11, 0	; 17
     230:	01 c0       	rjmp	.+2      	; 0x234 <setLED+0x18>
     232:	88 98       	cbi	0x11, 0	; 17
		if(!b) PORTF |= (1 << PIN_LED_1_B); else PORTF &= ~(1 << PIN_LED_1_B);
     234:	21 11       	cpse	r18, r1
     236:	02 c0       	rjmp	.+4      	; 0x23c <setLED+0x20>
     238:	8c 9a       	sbi	0x11, 4	; 17
     23a:	08 95       	ret
     23c:	8c 98       	cbi	0x11, 4	; 17
     23e:	08 95       	ret
	}else{
		if(!r) PORTF |= (1 << PIN_LED_2_R); else PORTF &= ~(1 << PIN_LED_2_R);
     240:	61 11       	cpse	r22, r1
     242:	02 c0       	rjmp	.+4      	; 0x248 <setLED+0x2c>
     244:	8e 9a       	sbi	0x11, 6	; 17
     246:	01 c0       	rjmp	.+2      	; 0x24a <setLED+0x2e>
     248:	8e 98       	cbi	0x11, 6	; 17
		if(!g) PORTF |= (1 << PIN_LED_2_G); else PORTF &= ~(1 << PIN_LED_2_G);
     24a:	41 11       	cpse	r20, r1
     24c:	02 c0       	rjmp	.+4      	; 0x252 <setLED+0x36>
     24e:	8d 9a       	sbi	0x11, 5	; 17
     250:	01 c0       	rjmp	.+2      	; 0x254 <setLED+0x38>
     252:	8d 98       	cbi	0x11, 5	; 17
		if(!b) PORTF |= (1 << PIN_LED_2_B); else PORTF &= ~(1 << PIN_LED_2_B);
     254:	21 11       	cpse	r18, r1
     256:	02 c0       	rjmp	.+4      	; 0x25c <setLED+0x40>
     258:	8f 9a       	sbi	0x11, 7	; 17
     25a:	08 95       	ret
     25c:	8f 98       	cbi	0x11, 7	; 17
     25e:	08 95       	ret

00000260 <setLEDs>:
	}
}

void setLEDs(unsigned char color){
     260:	cf 93       	push	r28
     262:	c8 2f       	mov	r28, r24
	setLED(0, color&1, color&2, color&4);
     264:	82 fb       	bst	r24, 2
     266:	22 27       	eor	r18, r18
     268:	20 f9       	bld	r18, 0
     26a:	81 fb       	bst	r24, 1
     26c:	44 27       	eor	r20, r20
     26e:	40 f9       	bld	r20, 0
     270:	68 2f       	mov	r22, r24
     272:	61 70       	andi	r22, 0x01	; 1
     274:	80 e0       	ldi	r24, 0x00	; 0
     276:	0e 94 0e 01 	call	0x21c	; 0x21c <setLED>
	setLED(1, color&8, color&16, color&32);
     27a:	c5 fb       	bst	r28, 5
     27c:	22 27       	eor	r18, r18
     27e:	20 f9       	bld	r18, 0
     280:	c4 fb       	bst	r28, 4
     282:	44 27       	eor	r20, r20
     284:	40 f9       	bld	r20, 0
     286:	c3 fb       	bst	r28, 3
     288:	66 27       	eor	r22, r22
     28a:	60 f9       	bld	r22, 0
     28c:	81 e0       	ldi	r24, 0x01	; 1
     28e:	0e 94 0e 01 	call	0x21c	; 0x21c <setLED>
}
     292:	cf 91       	pop	r28
     294:	08 95       	ret

00000296 <usb_write>:

//USB related
void usb_write(const char *str) {
     296:	cf 93       	push	r28
     298:	df 93       	push	r29
     29a:	ec 01       	movw	r28, r24
	while (*str) {
     29c:	88 81       	ld	r24, Y
     29e:	88 23       	and	r24, r24
     2a0:	31 f0       	breq	.+12     	; 0x2ae <usb_write+0x18>
     2a2:	21 96       	adiw	r28, 0x01	; 1
		usb_serial_putchar(*str);
     2a4:	0e 94 36 0a 	call	0x146c	; 0x146c <usb_serial_putchar>
	setLED(1, color&8, color&16, color&32);
}

//USB related
void usb_write(const char *str) {
	while (*str) {
     2a8:	89 91       	ld	r24, Y+
     2aa:	81 11       	cpse	r24, r1
     2ac:	fb cf       	rjmp	.-10     	; 0x2a4 <usb_write+0xe>
		usb_serial_putchar(*str);
		str++;
	}
}
     2ae:	df 91       	pop	r29
     2b0:	cf 91       	pop	r28
     2b2:	08 95       	ret

000002b4 <recv_str>:

uint8_t recv_str(char *buf, uint8_t size) {
     2b4:	ff 92       	push	r15
     2b6:	0f 93       	push	r16
     2b8:	1f 93       	push	r17
     2ba:	cf 93       	push	r28
     2bc:	df 93       	push	r29
     2be:	8c 01       	movw	r16, r24
     2c0:	f6 2e       	mov	r15, r22
	char data;
	uint8_t count = 0;
	uint8_t linuxfix = 0;
	while (count < size) {
     2c2:	66 23       	and	r22, r22
     2c4:	d9 f0       	breq	.+54     	; 0x2fc <recv_str+0x48>
     2c6:	c0 e0       	ldi	r28, 0x00	; 0
     2c8:	d0 e0       	ldi	r29, 0x00	; 0
		data = usb_serial_getchar();
     2ca:	0e 94 ed 09 	call	0x13da	; 0x13da <usb_serial_getchar>
		if (data == '\r' || data == '\n') {
     2ce:	8d 30       	cpi	r24, 0x0D	; 13
     2d0:	11 f0       	breq	.+4      	; 0x2d6 <recv_str+0x22>
     2d2:	8a 30       	cpi	r24, 0x0A	; 10
     2d4:	21 f4       	brne	.+8      	; 0x2de <recv_str+0x2a>
			*buf = '\0';
     2d6:	f8 01       	movw	r30, r16
     2d8:	10 82       	st	Z, r1
			return size;
     2da:	8f 2d       	mov	r24, r15
     2dc:	13 c0       	rjmp	.+38     	; 0x304 <recv_str+0x50>
		}
		if (data >= ' ' && data <= '~') {
     2de:	90 ee       	ldi	r25, 0xE0	; 224
     2e0:	98 0f       	add	r25, r24
     2e2:	9f 35       	cpi	r25, 0x5F	; 95
     2e4:	28 f4       	brcc	.+10     	; 0x2f0 <recv_str+0x3c>
			*buf++ = data;
     2e6:	f8 01       	movw	r30, r16
     2e8:	80 83       	st	Z, r24
			count++;
     2ea:	df 5f       	subi	r29, 0xFF	; 255
		if (data == '\r' || data == '\n') {
			*buf = '\0';
			return size;
		}
		if (data >= ' ' && data <= '~') {
			*buf++ = data;
     2ec:	0f 5f       	subi	r16, 0xFF	; 255
     2ee:	1f 4f       	sbci	r17, 0xFF	; 255
			count++;
		}
		if(++linuxfix == 0){
     2f0:	c1 30       	cpi	r28, 0x01	; 1
     2f2:	39 f0       	breq	.+14     	; 0x302 <recv_str+0x4e>
     2f4:	c1 50       	subi	r28, 0x01	; 1

uint8_t recv_str(char *buf, uint8_t size) {
	char data;
	uint8_t count = 0;
	uint8_t linuxfix = 0;
	while (count < size) {
     2f6:	df 15       	cp	r29, r15
     2f8:	40 f3       	brcs	.-48     	; 0x2ca <recv_str+0x16>
     2fa:	01 c0       	rjmp	.+2      	; 0x2fe <recv_str+0x4a>
	}
}

uint8_t recv_str(char *buf, uint8_t size) {
	char data;
	uint8_t count = 0;
     2fc:	d0 e0       	ldi	r29, 0x00	; 0
		}
		if(++linuxfix == 0){
			return 0xFF;
		}
	}
	return count;
     2fe:	8d 2f       	mov	r24, r29
     300:	01 c0       	rjmp	.+2      	; 0x304 <recv_str+0x50>
		if (data >= ' ' && data <= '~') {
			*buf++ = data;
			count++;
		}
		if(++linuxfix == 0){
			return 0xFF;
     302:	8f ef       	ldi	r24, 0xFF	; 255
		}
	}
	return count;
}
     304:	df 91       	pop	r29
     306:	cf 91       	pop	r28
     308:	1f 91       	pop	r17
     30a:	0f 91       	pop	r16
     30c:	ff 90       	pop	r15
     30e:	08 95       	ret

00000310 <uart_transmit>:
# define BAUD_PRESCALE ((( F_CPU / ( USART_BAUDRATE * 16UL))) - 1)

// transmit a char to uart
void uart_transmit( unsigned char data ){
	// wait for empty transmit buffer
	while (  !( UCSR1A & (1 << UDRE1))  );
     310:	e8 ec       	ldi	r30, 0xC8	; 200
     312:	f0 e0       	ldi	r31, 0x00	; 0
     314:	90 81       	ld	r25, Z
     316:	95 ff       	sbrs	r25, 5
     318:	fd cf       	rjmp	.-6      	; 0x314 <uart_transmit+0x4>
	// put data into buffer, sends data
	UDR1 = data;
     31a:	80 93 ce 00 	sts	0x00CE, r24
     31e:	08 95       	ret

00000320 <uart_init>:
}

// init uart
void uart_init(void){
	unsigned int baud = BAUD_PRESCALE;
	UBRR1H = (unsigned char) (baud >> 8 );
     320:	10 92 cd 00 	sts	0x00CD, r1
	UBRR1L = (unsigned char)baud;
     324:	83 e3       	ldi	r24, 0x33	; 51
     326:	80 93 cc 00 	sts	0x00CC, r24
	// enable received and transmitter and interrupt
	UCSR1B = ( 1 << RXEN1 ) | ( 1 << TXEN1 ) | (1 << RXCIE1);
     32a:	88 e9       	ldi	r24, 0x98	; 152
     32c:	80 93 c9 00 	sts	0x00C9, r24
	UCSR1C = (3 << UCSZ10); //8 dta bits, 1 stop bit
     330:	86 e0       	ldi	r24, 0x06	; 6
     332:	80 93 ca 00 	sts	0x00CA, r24
     336:	08 95       	ret

00000338 <uart_print>:
	return 1;
	return 0;
}

// write a string to the uart
void uart_print( char data[] ){
     338:	ef 92       	push	r14
     33a:	ff 92       	push	r15
     33c:	0f 93       	push	r16
     33e:	1f 93       	push	r17
     340:	cf 93       	push	r28
     342:	df 93       	push	r29
     344:	8c 01       	movw	r16, r24
     346:	7c 01       	movw	r14, r24
	int c = 0;
	for ( c = 0; c < strlen(data); c++ )
     348:	c0 e0       	ldi	r28, 0x00	; 0
     34a:	d0 e0       	ldi	r29, 0x00	; 0
     34c:	06 c0       	rjmp	.+12     	; 0x35a <uart_print+0x22>
		uart_transmit(data[c]);
     34e:	f7 01       	movw	r30, r14
     350:	81 91       	ld	r24, Z+
     352:	7f 01       	movw	r14, r30
     354:	0e 94 88 01 	call	0x310	; 0x310 <uart_transmit>
}

// write a string to the uart
void uart_print( char data[] ){
	int c = 0;
	for ( c = 0; c < strlen(data); c++ )
     358:	21 96       	adiw	r28, 0x01	; 1
     35a:	f8 01       	movw	r30, r16
     35c:	01 90       	ld	r0, Z+
     35e:	00 20       	and	r0, r0
     360:	e9 f7       	brne	.-6      	; 0x35c <uart_print+0x24>
     362:	31 97       	sbiw	r30, 0x01	; 1
     364:	e0 1b       	sub	r30, r16
     366:	f1 0b       	sbc	r31, r17
     368:	ce 17       	cp	r28, r30
     36a:	df 07       	cpc	r29, r31
     36c:	80 f3       	brcs	.-32     	; 0x34e <uart_print+0x16>
		uart_transmit(data[c]);
}
     36e:	df 91       	pop	r29
     370:	cf 91       	pop	r28
     372:	1f 91       	pop	r17
     374:	0f 91       	pop	r16
     376:	ff 90       	pop	r15
     378:	ef 90       	pop	r14
     37a:	08 95       	ret

0000037c <parse_and_execute_command>:
*  | |___  | (_) | | | | | | | | | | | | | | (_| | | | | | | (_| |     |  __/  | (_| | | |    \__ \ | | | | | | | (_| | *
*   \____|  \___/  |_| |_| |_| |_| |_| |_|  \__,_| |_| |_|  \__,_|     |_|      \__,_| |_|    |___/ |_| |_| |_|  \__, | *
*                                                                                                                |___/  *
************************************************************************************************************************/

void parse_and_execute_command(char *buf, _Bool answer_to_usb) {
     37c:	ef 92       	push	r14
     37e:	ff 92       	push	r15
     380:	0f 93       	push	r16
     382:	1f 93       	push	r17
     384:	cf 93       	push	r28
     386:	df 93       	push	r29
     388:	ec 01       	movw	r28, r24
     38a:	06 2f       	mov	r16, r22
	uint8_t id = eeprom_read_byte(BOARD_ID);
     38c:	80 e0       	ldi	r24, 0x00	; 0
     38e:	90 e0       	ldi	r25, 0x00	; 0
     390:	0e 94 41 0f 	call	0x1e82	; 0x1e82 <eeprom_read_byte>
     394:	18 2f       	mov	r17, r24
	char *command;
	int16_t par1;
	command = buf;
	
	//Vaatan üle globaalsed käsud (ID pole tarvis)
	if (   (command[0] == 'i') && (command[1] == 'd')   ){
     396:	28 81       	ld	r18, Y
     398:	29 36       	cpi	r18, 0x69	; 105
     39a:	89 f5       	brne	.+98     	; 0x3fe <parse_and_execute_command+0x82>
     39c:	89 81       	ldd	r24, Y+1	; 0x01
     39e:	84 36       	cpi	r24, 0x64	; 100
     3a0:	09 f0       	breq	.+2      	; 0x3a4 <parse_and_execute_command+0x28>
     3a2:	73 c2       	rjmp	.+1254   	; 0x88a <parse_and_execute_command+0x50e>
		//peaks sättima plaadi ID
		par1 = atoi(command+2); //id
     3a4:	ce 01       	movw	r24, r28
     3a6:	02 96       	adiw	r24, 0x02	; 2
     3a8:	0e 94 7a 0c 	call	0x18f4	; 0x18f4 <atoi>
     3ac:	c8 2f       	mov	r28, r24
     3ae:	d9 2f       	mov	r29, r25
		eeprom_update_byte(BOARD_ID, par1);
     3b0:	68 2f       	mov	r22, r24
     3b2:	80 e0       	ldi	r24, 0x00	; 0
     3b4:	90 e0       	ldi	r25, 0x00	; 0
     3b6:	0e 94 49 0f 	call	0x1e92	; 0x1e92 <eeprom_update_byte>
		sprintf(response, "<id_changed_from_%d_to_%d>\n", id, par1);
     3ba:	df 93       	push	r29
     3bc:	cf 93       	push	r28
     3be:	1f 92       	push	r1
     3c0:	1f 93       	push	r17
     3c2:	80 e2       	ldi	r24, 0x20	; 32
     3c4:	91 e0       	ldi	r25, 0x01	; 1
     3c6:	9f 93       	push	r25
     3c8:	8f 93       	push	r24
     3ca:	8c e8       	ldi	r24, 0x8C	; 140
     3cc:	92 e0       	ldi	r25, 0x02	; 2
     3ce:	9f 93       	push	r25
     3d0:	8f 93       	push	r24
     3d2:	0e 94 a0 0c 	call	0x1940	; 0x1940 <sprintf>
		if(answer_to_usb) usb_write(response); else uart_print(response);
     3d6:	8d b7       	in	r24, 0x3d	; 61
     3d8:	9e b7       	in	r25, 0x3e	; 62
     3da:	08 96       	adiw	r24, 0x08	; 8
     3dc:	0f b6       	in	r0, 0x3f	; 63
     3de:	f8 94       	cli
     3e0:	9e bf       	out	0x3e, r25	; 62
     3e2:	0f be       	out	0x3f, r0	; 63
     3e4:	8d bf       	out	0x3d, r24	; 61
     3e6:	00 23       	and	r16, r16
     3e8:	29 f0       	breq	.+10     	; 0x3f4 <parse_and_execute_command+0x78>
     3ea:	8c e8       	ldi	r24, 0x8C	; 140
     3ec:	92 e0       	ldi	r25, 0x02	; 2
     3ee:	0e 94 4b 01 	call	0x296	; 0x296 <usb_write>
     3f2:	07 c3       	rjmp	.+1550   	; 0xa02 <parse_and_execute_command+0x686>
     3f4:	8c e8       	ldi	r24, 0x8C	; 140
     3f6:	92 e0       	ldi	r25, 0x02	; 2
     3f8:	0e 94 9c 01 	call	0x338	; 0x338 <uart_print>
     3fc:	02 c3       	rjmp	.+1540   	; 0xa02 <parse_and_execute_command+0x686>
		return;
	} else if (command[0] == '?') {
     3fe:	2f 33       	cpi	r18, 0x3F	; 63
     400:	f1 f4       	brne	.+60     	; 0x43e <parse_and_execute_command+0xc2>
		//tagastan ID
		sprintf(response, "<connected:%d>\n", id);
     402:	1f 92       	push	r1
     404:	8f 93       	push	r24
     406:	8c e3       	ldi	r24, 0x3C	; 60
     408:	91 e0       	ldi	r25, 0x01	; 1
     40a:	9f 93       	push	r25
     40c:	8f 93       	push	r24
     40e:	8c e8       	ldi	r24, 0x8C	; 140
     410:	92 e0       	ldi	r25, 0x02	; 2
     412:	9f 93       	push	r25
     414:	8f 93       	push	r24
     416:	0e 94 a0 0c 	call	0x1940	; 0x1940 <sprintf>
		if(answer_to_usb) usb_write(response); else uart_print(response);
     41a:	0f 90       	pop	r0
     41c:	0f 90       	pop	r0
     41e:	0f 90       	pop	r0
     420:	0f 90       	pop	r0
     422:	0f 90       	pop	r0
     424:	0f 90       	pop	r0
     426:	00 23       	and	r16, r16
     428:	29 f0       	breq	.+10     	; 0x434 <parse_and_execute_command+0xb8>
     42a:	8c e8       	ldi	r24, 0x8C	; 140
     42c:	92 e0       	ldi	r25, 0x02	; 2
     42e:	0e 94 4b 01 	call	0x296	; 0x296 <usb_write>
     432:	e7 c2       	rjmp	.+1486   	; 0xa02 <parse_and_execute_command+0x686>
     434:	8c e8       	ldi	r24, 0x8C	; 140
     436:	92 e0       	ldi	r25, 0x02	; 2
     438:	0e 94 9c 01 	call	0x338	; 0x338 <uart_print>
     43c:	e2 c2       	rjmp	.+1476   	; 0xa02 <parse_and_execute_command+0x686>
		return;
	} else if (command[0] == 'p'  &&  command[1] == 'o'  &&  command[2] == 'n'  &&  command[3] == 'g') {
     43e:	20 37       	cpi	r18, 0x70	; 112
     440:	c1 f4       	brne	.+48     	; 0x472 <parse_and_execute_command+0xf6>
     442:	89 81       	ldd	r24, Y+1	; 0x01
     444:	8f 36       	cpi	r24, 0x6F	; 111
     446:	09 f0       	breq	.+2      	; 0x44a <parse_and_execute_command+0xce>
     448:	20 c2       	rjmp	.+1088   	; 0x88a <parse_and_execute_command+0x50e>
     44a:	8a 81       	ldd	r24, Y+2	; 0x02
     44c:	8e 36       	cpi	r24, 0x6E	; 110
     44e:	09 f0       	breq	.+2      	; 0x452 <parse_and_execute_command+0xd6>
     450:	1c c2       	rjmp	.+1080   	; 0x88a <parse_and_execute_command+0x50e>
     452:	8b 81       	ldd	r24, Y+3	; 0x03
     454:	87 36       	cpi	r24, 0x67	; 103
     456:	09 f0       	breq	.+2      	; 0x45a <parse_and_execute_command+0xde>
     458:	18 c2       	rjmp	.+1072   	; 0x88a <parse_and_execute_command+0x50e>
		//tagastan ID
		if(answer_to_usb) usb_write("pong"); else uart_print("pong");
     45a:	00 23       	and	r16, r16
     45c:	29 f0       	breq	.+10     	; 0x468 <parse_and_execute_command+0xec>
     45e:	8c e4       	ldi	r24, 0x4C	; 76
     460:	91 e0       	ldi	r25, 0x01	; 1
     462:	0e 94 4b 01 	call	0x296	; 0x296 <usb_write>
     466:	cd c2       	rjmp	.+1434   	; 0xa02 <parse_and_execute_command+0x686>
     468:	8c e4       	ldi	r24, 0x4C	; 76
     46a:	91 e0       	ldi	r25, 0x01	; 1
     46c:	0e 94 9c 01 	call	0x338	; 0x338 <uart_print>
     470:	c8 c2       	rjmp	.+1424   	; 0xa02 <parse_and_execute_command+0x686>
		return;
	}else if(command[0] == 't'){
     472:	24 37       	cpi	r18, 0x74	; 116
     474:	e1 f5       	brne	.+120    	; 0x4ee <parse_and_execute_command+0x172>
		setLEDs(32);
     476:	80 e2       	ldi	r24, 0x20	; 32
     478:	0e 94 30 01 	call	0x260	; 0x260 <setLEDs>
		//transfer message to other communication endpoint
		sprintf(response, "%s\n", command+1);
     47c:	21 96       	adiw	r28, 0x01	; 1
     47e:	df 93       	push	r29
     480:	cf 93       	push	r28
     482:	83 e2       	ldi	r24, 0x23	; 35
     484:	92 e0       	ldi	r25, 0x02	; 2
     486:	9f 93       	push	r25
     488:	8f 93       	push	r24
     48a:	8c e8       	ldi	r24, 0x8C	; 140
     48c:	92 e0       	ldi	r25, 0x02	; 2
     48e:	9f 93       	push	r25
     490:	8f 93       	push	r24
     492:	0e 94 a0 0c 	call	0x1940	; 0x1940 <sprintf>
		if(!answer_to_usb) usb_write(response); else uart_print(response);
     496:	0f 90       	pop	r0
     498:	0f 90       	pop	r0
     49a:	0f 90       	pop	r0
     49c:	0f 90       	pop	r0
     49e:	0f 90       	pop	r0
     4a0:	0f 90       	pop	r0
     4a2:	01 11       	cpse	r16, r1
     4a4:	12 c0       	rjmp	.+36     	; 0x4ca <parse_and_execute_command+0x14e>
     4a6:	8c e8       	ldi	r24, 0x8C	; 140
     4a8:	92 e0       	ldi	r25, 0x02	; 2
     4aa:	0e 94 4b 01 	call	0x296	; 0x296 <usb_write>
		sprintf(response, "<sent!>\n");
     4ae:	89 e0       	ldi	r24, 0x09	; 9
     4b0:	e1 e5       	ldi	r30, 0x51	; 81
     4b2:	f1 e0       	ldi	r31, 0x01	; 1
     4b4:	ac e8       	ldi	r26, 0x8C	; 140
     4b6:	b2 e0       	ldi	r27, 0x02	; 2
     4b8:	01 90       	ld	r0, Z+
     4ba:	0d 92       	st	X+, r0
     4bc:	8a 95       	dec	r24
     4be:	e1 f7       	brne	.-8      	; 0x4b8 <parse_and_execute_command+0x13c>
		if(answer_to_usb) usb_write(response); else uart_print(response);
     4c0:	8c e8       	ldi	r24, 0x8C	; 140
     4c2:	92 e0       	ldi	r25, 0x02	; 2
     4c4:	0e 94 9c 01 	call	0x338	; 0x338 <uart_print>
     4c8:	9c c2       	rjmp	.+1336   	; 0xa02 <parse_and_execute_command+0x686>
		return;
	}else if(command[0] == 't'){
		setLEDs(32);
		//transfer message to other communication endpoint
		sprintf(response, "%s\n", command+1);
		if(!answer_to_usb) usb_write(response); else uart_print(response);
     4ca:	8c e8       	ldi	r24, 0x8C	; 140
     4cc:	92 e0       	ldi	r25, 0x02	; 2
     4ce:	0e 94 9c 01 	call	0x338	; 0x338 <uart_print>
		sprintf(response, "<sent!>\n");
     4d2:	89 e0       	ldi	r24, 0x09	; 9
     4d4:	e1 e5       	ldi	r30, 0x51	; 81
     4d6:	f1 e0       	ldi	r31, 0x01	; 1
     4d8:	ac e8       	ldi	r26, 0x8C	; 140
     4da:	b2 e0       	ldi	r27, 0x02	; 2
     4dc:	01 90       	ld	r0, Z+
     4de:	0d 92       	st	X+, r0
     4e0:	8a 95       	dec	r24
     4e2:	e1 f7       	brne	.-8      	; 0x4dc <parse_and_execute_command+0x160>
		if(answer_to_usb) usb_write(response); else uart_print(response);
     4e4:	8c e8       	ldi	r24, 0x8C	; 140
     4e6:	92 e0       	ldi	r25, 0x02	; 2
     4e8:	0e 94 4b 01 	call	0x296	; 0x296 <usb_write>
     4ec:	8a c2       	rjmp	.+1300   	; 0xa02 <parse_and_execute_command+0x686>
		return;
	}else if(command[0] == 'u'){
     4ee:	25 37       	cpi	r18, 0x75	; 117
     4f0:	e1 f5       	brne	.+120    	; 0x56a <parse_and_execute_command+0x1ee>
		//Tahetakse juhtida ülemist robotit
		uint8_t receiver = 0;
		if(command[1] == '1'){
     4f2:	89 81       	ldd	r24, Y+1	; 0x01
     4f4:	81 33       	cpi	r24, 0x31	; 49
     4f6:	31 f0       	breq	.+12     	; 0x504 <parse_and_execute_command+0x188>
			//Tahetakse juhtida ülemist robotit nr. 1
			receiver = 1;
		}else if(command[1] == '2'){
     4f8:	82 33       	cpi	r24, 0x32	; 50
     4fa:	39 f4       	brne	.+14     	; 0x50a <parse_and_execute_command+0x18e>
			//Tahetakse juhtida ülemist robotit nr. 2
			receiver = 2;
     4fc:	68 94       	set
     4fe:	ff 24       	eor	r15, r15
     500:	f1 f8       	bld	r15, 1
     502:	04 c0       	rjmp	.+8      	; 0x50c <parse_and_execute_command+0x190>
	}else if(command[0] == 'u'){
		//Tahetakse juhtida ülemist robotit
		uint8_t receiver = 0;
		if(command[1] == '1'){
			//Tahetakse juhtida ülemist robotit nr. 1
			receiver = 1;
     504:	ff 24       	eor	r15, r15
     506:	f3 94       	inc	r15
     508:	01 c0       	rjmp	.+2      	; 0x50c <parse_and_execute_command+0x190>
		sprintf(response, "<sent!>\n");
		if(answer_to_usb) usb_write(response); else uart_print(response);
		return;
	}else if(command[0] == 'u'){
		//Tahetakse juhtida ülemist robotit
		uint8_t receiver = 0;
     50a:	f1 2c       	mov	r15, r1
		}else if(command[1] == '2'){
			//Tahetakse juhtida ülemist robotit nr. 2
			receiver = 2;
		}
		
		if(command[2] == 's'){
     50c:	8a 81       	ldd	r24, Y+2	; 0x02
     50e:	83 37       	cpi	r24, 0x73	; 115
     510:	09 f0       	breq	.+2      	; 0x514 <parse_and_execute_command+0x198>
     512:	d9 c1       	rjmp	.+946    	; 0x8c6 <parse_and_execute_command+0x54a>
			//Tahetakse sättida roboti kiirust
			int16_t speed = atoi(command+3);
     514:	ce 01       	movw	r24, r28
     516:	03 96       	adiw	r24, 0x03	; 3
     518:	0e 94 7a 0c 	call	0x18f4	; 0x18f4 <atoi>
			sprintf(response, "%d:sd%i\n", receiver, speed);
     51c:	9f 93       	push	r25
     51e:	8f 93       	push	r24
     520:	1f 92       	push	r1
     522:	ff 92       	push	r15
     524:	8a e5       	ldi	r24, 0x5A	; 90
     526:	91 e0       	ldi	r25, 0x01	; 1
     528:	9f 93       	push	r25
     52a:	8f 93       	push	r24
     52c:	8c e8       	ldi	r24, 0x8C	; 140
     52e:	92 e0       	ldi	r25, 0x02	; 2
     530:	9f 93       	push	r25
     532:	8f 93       	push	r24
     534:	0e 94 a0 0c 	call	0x1940	; 0x1940 <sprintf>
			uart_print(response);
     538:	8c e8       	ldi	r24, 0x8C	; 140
     53a:	92 e0       	ldi	r25, 0x02	; 2
     53c:	0e 94 9c 01 	call	0x338	; 0x338 <uart_print>
			usb_write("<sent_to_uart:");
     540:	83 e6       	ldi	r24, 0x63	; 99
     542:	91 e0       	ldi	r25, 0x01	; 1
     544:	0e 94 4b 01 	call	0x296	; 0x296 <usb_write>
			usb_write(response);
     548:	8c e8       	ldi	r24, 0x8C	; 140
     54a:	92 e0       	ldi	r25, 0x02	; 2
     54c:	0e 94 4b 01 	call	0x296	; 0x296 <usb_write>
			usb_write(">\n");
     550:	88 ed       	ldi	r24, 0xD8	; 216
     552:	91 e0       	ldi	r25, 0x01	; 1
     554:	0e 94 4b 01 	call	0x296	; 0x296 <usb_write>
     558:	8d b7       	in	r24, 0x3d	; 61
     55a:	9e b7       	in	r25, 0x3e	; 62
     55c:	08 96       	adiw	r24, 0x08	; 8
     55e:	0f b6       	in	r0, 0x3f	; 63
     560:	f8 94       	cli
     562:	9e bf       	out	0x3e, r25	; 62
     564:	0f be       	out	0x3f, r0	; 63
     566:	8d bf       	out	0x3d, r24	; 61
     568:	ae c1       	rjmp	.+860    	; 0x8c6 <parse_and_execute_command+0x54a>
			
		}
	}else if(command[0] == 'l'){
     56a:	2c 36       	cpi	r18, 0x6C	; 108
     56c:	09 f0       	breq	.+2      	; 0x570 <parse_and_execute_command+0x1f4>
     56e:	87 c1       	rjmp	.+782    	; 0x87e <parse_and_execute_command+0x502>
		//Tahetakse juhtida alumist robotit
		
		if(command[2] == 't'){
     570:	8a 81       	ldd	r24, Y+2	; 0x02
     572:	84 37       	cpi	r24, 0x74	; 116
     574:	09 f0       	breq	.+2      	; 0x578 <parse_and_execute_command+0x1fc>
     576:	65 c0       	rjmp	.+202    	; 0x642 <parse_and_execute_command+0x2c6>
			//Tahetakse pöörata robotit
			uint16_t time = atoi(command+3);
     578:	ce 01       	movw	r24, r28
     57a:	03 96       	adiw	r24, 0x03	; 3
     57c:	0e 94 7a 0c 	call	0x18f4	; 0x18f4 <atoi>
     580:	e8 2e       	mov	r14, r24
     582:	f9 2e       	mov	r15, r25
			if(command[1] == '1'){
     584:	29 81       	ldd	r18, Y+1	; 0x01
     586:	21 33       	cpi	r18, 0x31	; 49
     588:	29 f4       	brne	.+10     	; 0x594 <parse_and_execute_command+0x218>
				//Tahetakse juhtida alumist robotit nr. 1
				nrf24_tx_address(tx_address_l1);
     58a:	8b e0       	ldi	r24, 0x0B	; 11
     58c:	91 e0       	ldi	r25, 0x01	; 1
     58e:	0e 94 a3 09 	call	0x1346	; 0x1346 <nrf24_tx_address>
     592:	06 c0       	rjmp	.+12     	; 0x5a0 <parse_and_execute_command+0x224>
			}else if(command[1] == '2'){
     594:	22 33       	cpi	r18, 0x32	; 50
     596:	21 f4       	brne	.+8      	; 0x5a0 <parse_and_execute_command+0x224>
				//Tahetakse juhtida alumist robotit nr. 2
				nrf24_tx_address(tx_address_l2);
     598:	86 e0       	ldi	r24, 0x06	; 6
     59a:	91 e0       	ldi	r25, 0x01	; 1
     59c:	0e 94 a3 09 	call	0x1346	; 0x1346 <nrf24_tx_address>
			}
			data_array[0] = 0xE7;	//Sent from main board
     5a0:	ec ec       	ldi	r30, 0xCC	; 204
     5a2:	f2 e0       	ldi	r31, 0x02	; 2
     5a4:	87 ee       	ldi	r24, 0xE7	; 231
     5a6:	80 83       	st	Z, r24
			data_array[1] = 0x02;	//turn the robot
     5a8:	82 e0       	ldi	r24, 0x02	; 2
     5aa:	81 83       	std	Z+1, r24	; 0x01
			data_array[2] = motor_left_speed_buffer & 0xFF;
     5ac:	90 91 17 01 	lds	r25, 0x0117
     5b0:	80 91 18 01 	lds	r24, 0x0118
     5b4:	92 83       	std	Z+2, r25	; 0x02
			data_array[3] = motor_left_speed_buffer >> 8;
     5b6:	83 83       	std	Z+3, r24	; 0x03
			data_array[4] = motor_right_speed_buffer & 0xFF;
     5b8:	90 91 15 01 	lds	r25, 0x0115
     5bc:	80 91 16 01 	lds	r24, 0x0116
     5c0:	94 83       	std	Z+4, r25	; 0x04
			data_array[5] = motor_right_speed_buffer >> 8;
     5c2:	85 83       	std	Z+5, r24	; 0x05
			data_array[6] = time & 0xFF;
     5c4:	e6 82       	std	Z+6, r14	; 0x06
			data_array[7] = time >> 8;
     5c6:	f7 82       	std	Z+7, r15	; 0x07
			nrf24_send(data_array);
     5c8:	cf 01       	movw	r24, r30
     5ca:	0e 94 05 09 	call	0x120a	; 0x120a <nrf24_send>
			while(nrf24_isSending());
     5ce:	0e 94 2c 08 	call	0x1058	; 0x1058 <nrf24_isSending>
     5d2:	81 11       	cpse	r24, r1
     5d4:	fc cf       	rjmp	.-8      	; 0x5ce <parse_and_execute_command+0x252>
			uint8_t temp = nrf24_lastMessageStatus();
     5d6:	0e 94 34 08 	call	0x1068	; 0x1068 <nrf24_lastMessageStatus>
     5da:	f8 2e       	mov	r15, r24
			uint8_t connection_quality = nrf24_retransmissionCount();
     5dc:	0e 94 65 09 	call	0x12ca	; 0x12ca <nrf24_retransmissionCount>
     5e0:	e8 2e       	mov	r14, r24
			nrf24_tx_address(tx_address);
     5e2:	80 e1       	ldi	r24, 0x10	; 16
     5e4:	91 e0       	ldi	r25, 0x01	; 1
     5e6:	0e 94 a3 09 	call	0x1346	; 0x1346 <nrf24_tx_address>
			nrf24_powerUpRx();
     5ea:	0e 94 aa 08 	call	0x1154	; 0x1154 <nrf24_powerUpRx>
			if(temp == NRF24_MESSAGE_LOST){
     5ee:	91 e0       	ldi	r25, 0x01	; 1
     5f0:	f9 12       	cpse	r15, r25
     5f2:	05 c0       	rjmp	.+10     	; 0x5fe <parse_and_execute_command+0x282>
				usb_write("<message:lost>\n");
     5f4:	82 e7       	ldi	r24, 0x72	; 114
     5f6:	91 e0       	ldi	r25, 0x01	; 1
     5f8:	0e 94 4b 01 	call	0x296	; 0x296 <usb_write>
     5fc:	0b c0       	rjmp	.+22     	; 0x614 <parse_and_execute_command+0x298>
			}else if(temp == NRF24_TRANSMISSON_OK){
     5fe:	f1 10       	cpse	r15, r1
     600:	05 c0       	rjmp	.+10     	; 0x60c <parse_and_execute_command+0x290>
				usb_write("<message:sent>\n");
     602:	82 e8       	ldi	r24, 0x82	; 130
     604:	91 e0       	ldi	r25, 0x01	; 1
     606:	0e 94 4b 01 	call	0x296	; 0x296 <usb_write>
     60a:	04 c0       	rjmp	.+8      	; 0x614 <parse_and_execute_command+0x298>
			}else{
				usb_write("Something is really wrong!!!");
     60c:	82 e9       	ldi	r24, 0x92	; 146
     60e:	91 e0       	ldi	r25, 0x01	; 1
     610:	0e 94 4b 01 	call	0x296	; 0x296 <usb_write>
			}
			sprintf(response, "<quality:%d>\n", connection_quality);
     614:	1f 92       	push	r1
     616:	ef 92       	push	r14
     618:	8f ea       	ldi	r24, 0xAF	; 175
     61a:	91 e0       	ldi	r25, 0x01	; 1
     61c:	9f 93       	push	r25
     61e:	8f 93       	push	r24
     620:	8c e8       	ldi	r24, 0x8C	; 140
     622:	92 e0       	ldi	r25, 0x02	; 2
     624:	9f 93       	push	r25
     626:	8f 93       	push	r24
     628:	0e 94 a0 0c 	call	0x1940	; 0x1940 <sprintf>
			usb_write(response);
     62c:	8c e8       	ldi	r24, 0x8C	; 140
     62e:	92 e0       	ldi	r25, 0x02	; 2
     630:	0e 94 4b 01 	call	0x296	; 0x296 <usb_write>
     634:	0f 90       	pop	r0
     636:	0f 90       	pop	r0
     638:	0f 90       	pop	r0
     63a:	0f 90       	pop	r0
     63c:	0f 90       	pop	r0
     63e:	0f 90       	pop	r0
     640:	42 c1       	rjmp	.+644    	; 0x8c6 <parse_and_execute_command+0x54a>
		}else if(command[2] == 'm'){
     642:	8d 36       	cpi	r24, 0x6D	; 109
     644:	09 f0       	breq	.+2      	; 0x648 <parse_and_execute_command+0x2cc>
     646:	78 c0       	rjmp	.+240    	; 0x738 <parse_and_execute_command+0x3bc>
			//Tahetakse tamiili sulatada
			int16_t melttime = atoi(command+3);
     648:	ce 01       	movw	r24, r28
     64a:	03 96       	adiw	r24, 0x03	; 3
     64c:	0e 94 7a 0c 	call	0x18f4	; 0x18f4 <atoi>
     650:	7c 01       	movw	r14, r24
			
			sprintf(response, "<melt:%d>\n", melttime);
     652:	ff 92       	push	r15
     654:	8f 93       	push	r24
     656:	8d eb       	ldi	r24, 0xBD	; 189
     658:	91 e0       	ldi	r25, 0x01	; 1
     65a:	9f 93       	push	r25
     65c:	8f 93       	push	r24
     65e:	8c e8       	ldi	r24, 0x8C	; 140
     660:	92 e0       	ldi	r25, 0x02	; 2
     662:	9f 93       	push	r25
     664:	8f 93       	push	r24
     666:	0e 94 a0 0c 	call	0x1940	; 0x1940 <sprintf>
			usb_write(response);
     66a:	8c e8       	ldi	r24, 0x8C	; 140
     66c:	92 e0       	ldi	r25, 0x02	; 2
     66e:	0e 94 4b 01 	call	0x296	; 0x296 <usb_write>
			
			if(melttime > 300){
     672:	0f 90       	pop	r0
     674:	0f 90       	pop	r0
     676:	0f 90       	pop	r0
     678:	0f 90       	pop	r0
     67a:	0f 90       	pop	r0
     67c:	0f 90       	pop	r0
     67e:	8d e2       	ldi	r24, 0x2D	; 45
     680:	e8 16       	cp	r14, r24
     682:	81 e0       	ldi	r24, 0x01	; 1
     684:	f8 06       	cpc	r15, r24
     686:	2c f0       	brlt	.+10     	; 0x692 <parse_and_execute_command+0x316>
				usb_write("<Too high value!>\n");
     688:	88 ec       	ldi	r24, 0xC8	; 200
     68a:	91 e0       	ldi	r25, 0x01	; 1
     68c:	0e 94 4b 01 	call	0x296	; 0x296 <usb_write>
     690:	1a c1       	rjmp	.+564    	; 0x8c6 <parse_and_execute_command+0x54a>
			}else{
				if(command[1] == '1'){
     692:	89 81       	ldd	r24, Y+1	; 0x01
     694:	81 33       	cpi	r24, 0x31	; 49
     696:	29 f4       	brne	.+10     	; 0x6a2 <parse_and_execute_command+0x326>
					//Tahetakse juhtida alumist robotit nr. 1
					nrf24_tx_address(tx_address_l1);
     698:	8b e0       	ldi	r24, 0x0B	; 11
     69a:	91 e0       	ldi	r25, 0x01	; 1
     69c:	0e 94 a3 09 	call	0x1346	; 0x1346 <nrf24_tx_address>
     6a0:	06 c0       	rjmp	.+12     	; 0x6ae <parse_and_execute_command+0x332>
				}else if(command[1] == '2'){
     6a2:	82 33       	cpi	r24, 0x32	; 50
     6a4:	21 f4       	brne	.+8      	; 0x6ae <parse_and_execute_command+0x332>
					//Tahetakse juhtida alumist robotit nr. 2
					nrf24_tx_address(tx_address_l2);
     6a6:	86 e0       	ldi	r24, 0x06	; 6
     6a8:	91 e0       	ldi	r25, 0x01	; 1
     6aa:	0e 94 a3 09 	call	0x1346	; 0x1346 <nrf24_tx_address>
				}
				data_array[0] = 0xE7;	//Sent from main board
     6ae:	ec ec       	ldi	r30, 0xCC	; 204
     6b0:	f2 e0       	ldi	r31, 0x02	; 2
     6b2:	87 ee       	ldi	r24, 0xE7	; 231
     6b4:	80 83       	st	Z, r24
				data_array[1] = 0x03;	//Want to melt the line
     6b6:	83 e0       	ldi	r24, 0x03	; 3
     6b8:	81 83       	std	Z+1, r24	; 0x01
				data_array[2] = melttime & 0xFF;
     6ba:	e2 82       	std	Z+2, r14	; 0x02
				data_array[3] = melttime >> 8;
     6bc:	f3 82       	std	Z+3, r15	; 0x03
				nrf24_send(data_array);
     6be:	cf 01       	movw	r24, r30
     6c0:	0e 94 05 09 	call	0x120a	; 0x120a <nrf24_send>
				while(nrf24_isSending());
     6c4:	0e 94 2c 08 	call	0x1058	; 0x1058 <nrf24_isSending>
     6c8:	81 11       	cpse	r24, r1
     6ca:	fc cf       	rjmp	.-8      	; 0x6c4 <parse_and_execute_command+0x348>
				uint8_t temp = nrf24_lastMessageStatus();
     6cc:	0e 94 34 08 	call	0x1068	; 0x1068 <nrf24_lastMessageStatus>
     6d0:	f8 2e       	mov	r15, r24
				uint8_t connection_quality = nrf24_retransmissionCount();
     6d2:	0e 94 65 09 	call	0x12ca	; 0x12ca <nrf24_retransmissionCount>
     6d6:	e8 2e       	mov	r14, r24
				nrf24_tx_address(tx_address);
     6d8:	80 e1       	ldi	r24, 0x10	; 16
     6da:	91 e0       	ldi	r25, 0x01	; 1
     6dc:	0e 94 a3 09 	call	0x1346	; 0x1346 <nrf24_tx_address>
				nrf24_powerUpRx();
     6e0:	0e 94 aa 08 	call	0x1154	; 0x1154 <nrf24_powerUpRx>
				if(temp == NRF24_MESSAGE_LOST){
     6e4:	91 e0       	ldi	r25, 0x01	; 1
     6e6:	f9 12       	cpse	r15, r25
     6e8:	05 c0       	rjmp	.+10     	; 0x6f4 <parse_and_execute_command+0x378>
					usb_write("<message:lost>\n");
     6ea:	82 e7       	ldi	r24, 0x72	; 114
     6ec:	91 e0       	ldi	r25, 0x01	; 1
     6ee:	0e 94 4b 01 	call	0x296	; 0x296 <usb_write>
     6f2:	0b c0       	rjmp	.+22     	; 0x70a <parse_and_execute_command+0x38e>
				}else if(temp == NRF24_TRANSMISSON_OK){
     6f4:	f1 10       	cpse	r15, r1
     6f6:	05 c0       	rjmp	.+10     	; 0x702 <parse_and_execute_command+0x386>
					usb_write("<message:sent>\n");
     6f8:	82 e8       	ldi	r24, 0x82	; 130
     6fa:	91 e0       	ldi	r25, 0x01	; 1
     6fc:	0e 94 4b 01 	call	0x296	; 0x296 <usb_write>
     700:	04 c0       	rjmp	.+8      	; 0x70a <parse_and_execute_command+0x38e>
				}else{
					usb_write("Something is really wrong!!!");
     702:	82 e9       	ldi	r24, 0x92	; 146
     704:	91 e0       	ldi	r25, 0x01	; 1
     706:	0e 94 4b 01 	call	0x296	; 0x296 <usb_write>
				}
				sprintf(response, "<quality:%d>\n", connection_quality);
     70a:	1f 92       	push	r1
     70c:	ef 92       	push	r14
     70e:	8f ea       	ldi	r24, 0xAF	; 175
     710:	91 e0       	ldi	r25, 0x01	; 1
     712:	9f 93       	push	r25
     714:	8f 93       	push	r24
     716:	8c e8       	ldi	r24, 0x8C	; 140
     718:	92 e0       	ldi	r25, 0x02	; 2
     71a:	9f 93       	push	r25
     71c:	8f 93       	push	r24
     71e:	0e 94 a0 0c 	call	0x1940	; 0x1940 <sprintf>
				usb_write(response);
     722:	8c e8       	ldi	r24, 0x8C	; 140
     724:	92 e0       	ldi	r25, 0x02	; 2
     726:	0e 94 4b 01 	call	0x296	; 0x296 <usb_write>
     72a:	0f 90       	pop	r0
     72c:	0f 90       	pop	r0
     72e:	0f 90       	pop	r0
     730:	0f 90       	pop	r0
     732:	0f 90       	pop	r0
     734:	0f 90       	pop	r0
     736:	c7 c0       	rjmp	.+398    	; 0x8c6 <parse_and_execute_command+0x54a>
			}
		}else if(command[2] == 'l'){
     738:	8c 36       	cpi	r24, 0x6C	; 108
     73a:	f9 f4       	brne	.+62     	; 0x77a <parse_and_execute_command+0x3fe>
			//Tahetakse sättida vasaku ratta kiirust
			motor_left_speed_buffer = atoi(command+3);
     73c:	ce 01       	movw	r24, r28
     73e:	03 96       	adiw	r24, 0x03	; 3
     740:	0e 94 7a 0c 	call	0x18f4	; 0x18f4 <atoi>
     744:	80 93 17 01 	sts	0x0117, r24
     748:	90 93 18 01 	sts	0x0118, r25
			sprintf(response, "<slbt:%d>\n", motor_left_speed_buffer);
     74c:	9f 93       	push	r25
     74e:	8f 93       	push	r24
     750:	8b ed       	ldi	r24, 0xDB	; 219
     752:	91 e0       	ldi	r25, 0x01	; 1
     754:	9f 93       	push	r25
     756:	8f 93       	push	r24
     758:	8c e8       	ldi	r24, 0x8C	; 140
     75a:	92 e0       	ldi	r25, 0x02	; 2
     75c:	9f 93       	push	r25
     75e:	8f 93       	push	r24
     760:	0e 94 a0 0c 	call	0x1940	; 0x1940 <sprintf>
			usb_write(response);
     764:	8c e8       	ldi	r24, 0x8C	; 140
     766:	92 e0       	ldi	r25, 0x02	; 2
     768:	0e 94 4b 01 	call	0x296	; 0x296 <usb_write>
     76c:	0f 90       	pop	r0
     76e:	0f 90       	pop	r0
     770:	0f 90       	pop	r0
     772:	0f 90       	pop	r0
     774:	0f 90       	pop	r0
     776:	0f 90       	pop	r0
     778:	a6 c0       	rjmp	.+332    	; 0x8c6 <parse_and_execute_command+0x54a>
		}else if(command[2] == 'r'){
     77a:	82 37       	cpi	r24, 0x72	; 114
     77c:	f9 f4       	brne	.+62     	; 0x7bc <parse_and_execute_command+0x440>
			//Tahetakse sättida parema ratta kiirust
			motor_right_speed_buffer = atoi(command+3);
     77e:	ce 01       	movw	r24, r28
     780:	03 96       	adiw	r24, 0x03	; 3
     782:	0e 94 7a 0c 	call	0x18f4	; 0x18f4 <atoi>
     786:	80 93 15 01 	sts	0x0115, r24
     78a:	90 93 16 01 	sts	0x0116, r25
			sprintf(response, "<srbt:%d>\n", motor_right_speed_buffer);
     78e:	9f 93       	push	r25
     790:	8f 93       	push	r24
     792:	86 ee       	ldi	r24, 0xE6	; 230
     794:	91 e0       	ldi	r25, 0x01	; 1
     796:	9f 93       	push	r25
     798:	8f 93       	push	r24
     79a:	8c e8       	ldi	r24, 0x8C	; 140
     79c:	92 e0       	ldi	r25, 0x02	; 2
     79e:	9f 93       	push	r25
     7a0:	8f 93       	push	r24
     7a2:	0e 94 a0 0c 	call	0x1940	; 0x1940 <sprintf>
			usb_write(response);
     7a6:	8c e8       	ldi	r24, 0x8C	; 140
     7a8:	92 e0       	ldi	r25, 0x02	; 2
     7aa:	0e 94 4b 01 	call	0x296	; 0x296 <usb_write>
     7ae:	0f 90       	pop	r0
     7b0:	0f 90       	pop	r0
     7b2:	0f 90       	pop	r0
     7b4:	0f 90       	pop	r0
     7b6:	0f 90       	pop	r0
     7b8:	0f 90       	pop	r0
     7ba:	85 c0       	rjmp	.+266    	; 0x8c6 <parse_and_execute_command+0x54a>
		}else if(command[2] == 's'){
     7bc:	83 37       	cpi	r24, 0x73	; 115
     7be:	09 f0       	breq	.+2      	; 0x7c2 <parse_and_execute_command+0x446>
     7c0:	82 c0       	rjmp	.+260    	; 0x8c6 <parse_and_execute_command+0x54a>
			//Tahetakse saata rataste kiirusi
			if(command[1] == '1'){
     7c2:	89 81       	ldd	r24, Y+1	; 0x01
     7c4:	81 33       	cpi	r24, 0x31	; 49
     7c6:	29 f4       	brne	.+10     	; 0x7d2 <parse_and_execute_command+0x456>
				//Tahetakse juhtida alumist robotit nr. 1
				nrf24_tx_address(tx_address_l1);
     7c8:	8b e0       	ldi	r24, 0x0B	; 11
     7ca:	91 e0       	ldi	r25, 0x01	; 1
     7cc:	0e 94 a3 09 	call	0x1346	; 0x1346 <nrf24_tx_address>
     7d0:	06 c0       	rjmp	.+12     	; 0x7de <parse_and_execute_command+0x462>
			}else if(command[1] == '2'){
     7d2:	82 33       	cpi	r24, 0x32	; 50
     7d4:	21 f4       	brne	.+8      	; 0x7de <parse_and_execute_command+0x462>
				//Tahetakse juhtida alumist robotit nr. 2
				nrf24_tx_address(tx_address_l2);
     7d6:	86 e0       	ldi	r24, 0x06	; 6
     7d8:	91 e0       	ldi	r25, 0x01	; 1
     7da:	0e 94 a3 09 	call	0x1346	; 0x1346 <nrf24_tx_address>
			}
			data_array[0] = 0xE7;	//Sent from main board
     7de:	ec ec       	ldi	r30, 0xCC	; 204
     7e0:	f2 e0       	ldi	r31, 0x02	; 2
     7e2:	87 ee       	ldi	r24, 0xE7	; 231
     7e4:	80 83       	st	Z, r24
			data_array[1] = 0x01;	//Want to change the speed of motors
     7e6:	81 e0       	ldi	r24, 0x01	; 1
     7e8:	81 83       	std	Z+1, r24	; 0x01
			data_array[2] = motor_left_speed_buffer & 0xFF;
     7ea:	90 91 17 01 	lds	r25, 0x0117
     7ee:	80 91 18 01 	lds	r24, 0x0118
     7f2:	92 83       	std	Z+2, r25	; 0x02
			data_array[3] = motor_left_speed_buffer >> 8;
     7f4:	83 83       	std	Z+3, r24	; 0x03
			data_array[4] = motor_right_speed_buffer & 0xFF;
     7f6:	90 91 15 01 	lds	r25, 0x0115
     7fa:	80 91 16 01 	lds	r24, 0x0116
     7fe:	94 83       	std	Z+4, r25	; 0x04
			data_array[5] = motor_right_speed_buffer >> 8;
     800:	85 83       	std	Z+5, r24	; 0x05
			data_array[6] = 0;		//Don't send anything back
     802:	16 82       	std	Z+6, r1	; 0x06
			nrf24_send(data_array);
     804:	cf 01       	movw	r24, r30
     806:	0e 94 05 09 	call	0x120a	; 0x120a <nrf24_send>
			while(nrf24_isSending());
     80a:	0e 94 2c 08 	call	0x1058	; 0x1058 <nrf24_isSending>
     80e:	81 11       	cpse	r24, r1
     810:	fc cf       	rjmp	.-8      	; 0x80a <parse_and_execute_command+0x48e>
			uint8_t temp = nrf24_lastMessageStatus();
     812:	0e 94 34 08 	call	0x1068	; 0x1068 <nrf24_lastMessageStatus>
     816:	f8 2e       	mov	r15, r24
			uint8_t connection_quality = nrf24_retransmissionCount();
     818:	0e 94 65 09 	call	0x12ca	; 0x12ca <nrf24_retransmissionCount>
     81c:	e8 2e       	mov	r14, r24
			nrf24_tx_address(tx_address);
     81e:	80 e1       	ldi	r24, 0x10	; 16
     820:	91 e0       	ldi	r25, 0x01	; 1
     822:	0e 94 a3 09 	call	0x1346	; 0x1346 <nrf24_tx_address>
			nrf24_powerUpRx();
     826:	0e 94 aa 08 	call	0x1154	; 0x1154 <nrf24_powerUpRx>
			if(temp == NRF24_MESSAGE_LOST){
     82a:	81 e0       	ldi	r24, 0x01	; 1
     82c:	f8 12       	cpse	r15, r24
     82e:	05 c0       	rjmp	.+10     	; 0x83a <parse_and_execute_command+0x4be>
				usb_write("<message:lost>\n");
     830:	82 e7       	ldi	r24, 0x72	; 114
     832:	91 e0       	ldi	r25, 0x01	; 1
     834:	0e 94 4b 01 	call	0x296	; 0x296 <usb_write>
     838:	0b c0       	rjmp	.+22     	; 0x850 <parse_and_execute_command+0x4d4>
			}else if(temp == NRF24_TRANSMISSON_OK){
     83a:	f1 10       	cpse	r15, r1
     83c:	05 c0       	rjmp	.+10     	; 0x848 <parse_and_execute_command+0x4cc>
				usb_write("<message:sent>\n");
     83e:	82 e8       	ldi	r24, 0x82	; 130
     840:	91 e0       	ldi	r25, 0x01	; 1
     842:	0e 94 4b 01 	call	0x296	; 0x296 <usb_write>
     846:	04 c0       	rjmp	.+8      	; 0x850 <parse_and_execute_command+0x4d4>
			}else{
				usb_write("Something is really wrong!!!");
     848:	82 e9       	ldi	r24, 0x92	; 146
     84a:	91 e0       	ldi	r25, 0x01	; 1
     84c:	0e 94 4b 01 	call	0x296	; 0x296 <usb_write>
			}
			sprintf(response, "<quality:%d>\n", connection_quality);
     850:	1f 92       	push	r1
     852:	ef 92       	push	r14
     854:	8f ea       	ldi	r24, 0xAF	; 175
     856:	91 e0       	ldi	r25, 0x01	; 1
     858:	9f 93       	push	r25
     85a:	8f 93       	push	r24
     85c:	8c e8       	ldi	r24, 0x8C	; 140
     85e:	92 e0       	ldi	r25, 0x02	; 2
     860:	9f 93       	push	r25
     862:	8f 93       	push	r24
     864:	0e 94 a0 0c 	call	0x1940	; 0x1940 <sprintf>
			usb_write(response);
     868:	8c e8       	ldi	r24, 0x8C	; 140
     86a:	92 e0       	ldi	r25, 0x02	; 2
     86c:	0e 94 4b 01 	call	0x296	; 0x296 <usb_write>
     870:	0f 90       	pop	r0
     872:	0f 90       	pop	r0
     874:	0f 90       	pop	r0
     876:	0f 90       	pop	r0
     878:	0f 90       	pop	r0
     87a:	0f 90       	pop	r0
     87c:	24 c0       	rjmp	.+72     	; 0x8c6 <parse_and_execute_command+0x54a>
		sprintf(response, "%s\n", command+1);
		if(!answer_to_usb) usb_write(response); else uart_print(response);
		sprintf(response, "<uart:sent>\n");
		if(answer_to_usb) usb_write(response); else uart_print(response);
		return;
	}else if(!isdigit(command[0])){
     87e:	30 e0       	ldi	r19, 0x00	; 0
     880:	20 53       	subi	r18, 0x30	; 48
     882:	31 09       	sbc	r19, r1
     884:	2a 30       	cpi	r18, 0x0A	; 10
     886:	31 05       	cpc	r19, r1
     888:	f0 f0       	brcs	.+60     	; 0x8c6 <parse_and_execute_command+0x54a>
		sprintf(response, "<unknown:%s>\n", command);
     88a:	df 93       	push	r29
     88c:	cf 93       	push	r28
     88e:	81 ef       	ldi	r24, 0xF1	; 241
     890:	91 e0       	ldi	r25, 0x01	; 1
     892:	9f 93       	push	r25
     894:	8f 93       	push	r24
     896:	8c e8       	ldi	r24, 0x8C	; 140
     898:	92 e0       	ldi	r25, 0x02	; 2
     89a:	9f 93       	push	r25
     89c:	8f 93       	push	r24
     89e:	0e 94 a0 0c 	call	0x1940	; 0x1940 <sprintf>
		//sprintf(response, "%s", command);
		if(answer_to_usb) usb_write(response); else uart_print(response);
     8a2:	0f 90       	pop	r0
     8a4:	0f 90       	pop	r0
     8a6:	0f 90       	pop	r0
     8a8:	0f 90       	pop	r0
     8aa:	0f 90       	pop	r0
     8ac:	0f 90       	pop	r0
     8ae:	00 23       	and	r16, r16
     8b0:	29 f0       	breq	.+10     	; 0x8bc <parse_and_execute_command+0x540>
     8b2:	8c e8       	ldi	r24, 0x8C	; 140
     8b4:	92 e0       	ldi	r25, 0x02	; 2
     8b6:	0e 94 4b 01 	call	0x296	; 0x296 <usb_write>
     8ba:	a3 c0       	rjmp	.+326    	; 0xa02 <parse_and_execute_command+0x686>
     8bc:	8c e8       	ldi	r24, 0x8C	; 140
     8be:	92 e0       	ldi	r25, 0x02	; 2
     8c0:	0e 94 9c 01 	call	0x338	; 0x338 <uart_print>
     8c4:	9e c0       	rjmp	.+316    	; 0xa02 <parse_and_execute_command+0x686>
		return;
	}
	
	//Parsin välja päris käsu (eemaldan ID)
	par1 = atoi(command);
     8c6:	ce 01       	movw	r24, r28
     8c8:	0e 94 7a 0c 	call	0x18f4	; 0x18f4 <atoi>
	if(par1 != id){
     8cc:	21 2f       	mov	r18, r17
     8ce:	30 e0       	ldi	r19, 0x00	; 0
     8d0:	28 17       	cp	r18, r24
     8d2:	39 07       	cpc	r19, r25
     8d4:	09 f0       	breq	.+2      	; 0x8d8 <parse_and_execute_command+0x55c>
     8d6:	95 c0       	rjmp	.+298    	; 0xa02 <parse_and_execute_command+0x686>
		return;
	}else{
		while (*command != ':') command++;
     8d8:	88 81       	ld	r24, Y
     8da:	8a 33       	cpi	r24, 0x3A	; 58
     8dc:	49 f0       	breq	.+18     	; 0x8f0 <parse_and_execute_command+0x574>
     8de:	9e 01       	movw	r18, r28
     8e0:	2f 5f       	subi	r18, 0xFF	; 255
     8e2:	3f 4f       	sbci	r19, 0xFF	; 255
     8e4:	e9 01       	movw	r28, r18
     8e6:	2f 5f       	subi	r18, 0xFF	; 255
     8e8:	3f 4f       	sbci	r19, 0xFF	; 255
     8ea:	98 81       	ld	r25, Y
     8ec:	9a 33       	cpi	r25, 0x3A	; 58
     8ee:	d1 f7       	brne	.-12     	; 0x8e4 <parse_and_execute_command+0x568>
		command++;
     8f0:	9e 01       	movw	r18, r28
     8f2:	2f 5f       	subi	r18, 0xFF	; 255
     8f4:	3f 4f       	sbci	r19, 0xFF	; 255
	}
	
	//uurin ja täidan käske
	if (command[0] == 'g'  &&  command[1] == 'b') {
     8f6:	89 81       	ldd	r24, Y+1	; 0x01
     8f8:	87 36       	cpi	r24, 0x67	; 103
     8fa:	51 f5       	brne	.+84     	; 0x950 <parse_and_execute_command+0x5d4>
     8fc:	8a 81       	ldd	r24, Y+2	; 0x02
     8fe:	82 36       	cpi	r24, 0x62	; 98
     900:	09 f0       	breq	.+2      	; 0x904 <parse_and_execute_command+0x588>
     902:	5e c0       	rjmp	.+188    	; 0x9c0 <parse_and_execute_command+0x644>
		//report if ball is in dribbler
		sprintf(response, "<%d:ball:%d>\n", id, !!(PINE & (1 << 6)));
     904:	8c b1       	in	r24, 0x0c	; 12
     906:	86 fb       	bst	r24, 6
     908:	88 27       	eor	r24, r24
     90a:	80 f9       	bld	r24, 0
     90c:	1f 92       	push	r1
     90e:	8f 93       	push	r24
     910:	1f 92       	push	r1
     912:	1f 93       	push	r17
     914:	8f ef       	ldi	r24, 0xFF	; 255
     916:	91 e0       	ldi	r25, 0x01	; 1
     918:	9f 93       	push	r25
     91a:	8f 93       	push	r24
     91c:	8c e8       	ldi	r24, 0x8C	; 140
     91e:	92 e0       	ldi	r25, 0x02	; 2
     920:	9f 93       	push	r25
     922:	8f 93       	push	r24
     924:	0e 94 a0 0c 	call	0x1940	; 0x1940 <sprintf>
		if(answer_to_usb) usb_write(response); else uart_print(response);
     928:	8d b7       	in	r24, 0x3d	; 61
     92a:	9e b7       	in	r25, 0x3e	; 62
     92c:	08 96       	adiw	r24, 0x08	; 8
     92e:	0f b6       	in	r0, 0x3f	; 63
     930:	f8 94       	cli
     932:	9e bf       	out	0x3e, r25	; 62
     934:	0f be       	out	0x3f, r0	; 63
     936:	8d bf       	out	0x3d, r24	; 61
     938:	00 23       	and	r16, r16
     93a:	29 f0       	breq	.+10     	; 0x946 <parse_and_execute_command+0x5ca>
     93c:	8c e8       	ldi	r24, 0x8C	; 140
     93e:	92 e0       	ldi	r25, 0x02	; 2
     940:	0e 94 4b 01 	call	0x296	; 0x296 <usb_write>
     944:	5e c0       	rjmp	.+188    	; 0xa02 <parse_and_execute_command+0x686>
     946:	8c e8       	ldi	r24, 0x8C	; 140
     948:	92 e0       	ldi	r25, 0x02	; 2
     94a:	0e 94 9c 01 	call	0x338	; 0x338 <uart_print>
     94e:	59 c0       	rjmp	.+178    	; 0xa02 <parse_and_execute_command+0x686>
	}else if (command[0] == 'l'  &&  command[1] == 'e'  &&  command[2] == 'd') {
     950:	8c 36       	cpi	r24, 0x6C	; 108
     952:	69 f4       	brne	.+26     	; 0x96e <parse_and_execute_command+0x5f2>
     954:	8a 81       	ldd	r24, Y+2	; 0x02
     956:	85 36       	cpi	r24, 0x65	; 101
     958:	99 f5       	brne	.+102    	; 0x9c0 <parse_and_execute_command+0x644>
     95a:	8b 81       	ldd	r24, Y+3	; 0x03
     95c:	84 36       	cpi	r24, 0x64	; 100
     95e:	81 f5       	brne	.+96     	; 0x9c0 <parse_and_execute_command+0x644>
		//set LED state
		par1 = atoi(command+3);
     960:	ce 01       	movw	r24, r28
     962:	04 96       	adiw	r24, 0x04	; 4
     964:	0e 94 7a 0c 	call	0x18f4	; 0x18f4 <atoi>
		setLEDs(par1);
     968:	0e 94 30 01 	call	0x260	; 0x260 <setLEDs>
     96c:	4a c0       	rjmp	.+148    	; 0xa02 <parse_and_execute_command+0x686>
	}else if (command[0] == 'p'  &&  command[1] == 'i'  &&  command[2] == 'n'  &&  command[3] == 'g') {
     96e:	80 37       	cpi	r24, 0x70	; 112
     970:	39 f5       	brne	.+78     	; 0x9c0 <parse_and_execute_command+0x644>
     972:	8a 81       	ldd	r24, Y+2	; 0x02
     974:	89 36       	cpi	r24, 0x69	; 105
     976:	21 f5       	brne	.+72     	; 0x9c0 <parse_and_execute_command+0x644>
     978:	8b 81       	ldd	r24, Y+3	; 0x03
     97a:	8e 36       	cpi	r24, 0x6E	; 110
     97c:	09 f5       	brne	.+66     	; 0x9c0 <parse_and_execute_command+0x644>
     97e:	8c 81       	ldd	r24, Y+4	; 0x04
     980:	87 36       	cpi	r24, 0x67	; 103
     982:	f1 f4       	brne	.+60     	; 0x9c0 <parse_and_execute_command+0x644>
		sprintf(response, "<%d:pong>\n", id);
     984:	1f 92       	push	r1
     986:	1f 93       	push	r17
     988:	8d e0       	ldi	r24, 0x0D	; 13
     98a:	92 e0       	ldi	r25, 0x02	; 2
     98c:	9f 93       	push	r25
     98e:	8f 93       	push	r24
     990:	8c e8       	ldi	r24, 0x8C	; 140
     992:	92 e0       	ldi	r25, 0x02	; 2
     994:	9f 93       	push	r25
     996:	8f 93       	push	r24
     998:	0e 94 a0 0c 	call	0x1940	; 0x1940 <sprintf>
		if(answer_to_usb) usb_write(response); else uart_print(response);
     99c:	0f 90       	pop	r0
     99e:	0f 90       	pop	r0
     9a0:	0f 90       	pop	r0
     9a2:	0f 90       	pop	r0
     9a4:	0f 90       	pop	r0
     9a6:	0f 90       	pop	r0
     9a8:	00 23       	and	r16, r16
     9aa:	29 f0       	breq	.+10     	; 0x9b6 <parse_and_execute_command+0x63a>
     9ac:	8c e8       	ldi	r24, 0x8C	; 140
     9ae:	92 e0       	ldi	r25, 0x02	; 2
     9b0:	0e 94 4b 01 	call	0x296	; 0x296 <usb_write>
     9b4:	26 c0       	rjmp	.+76     	; 0xa02 <parse_and_execute_command+0x686>
     9b6:	8c e8       	ldi	r24, 0x8C	; 140
     9b8:	92 e0       	ldi	r25, 0x02	; 2
     9ba:	0e 94 9c 01 	call	0x338	; 0x338 <uart_print>
     9be:	21 c0       	rjmp	.+66     	; 0xa02 <parse_and_execute_command+0x686>
	}else{
		sprintf(response, "%d:unknown:%s\n", id, command);
     9c0:	3f 93       	push	r19
     9c2:	2f 93       	push	r18
     9c4:	1f 92       	push	r1
     9c6:	1f 93       	push	r17
     9c8:	88 e1       	ldi	r24, 0x18	; 24
     9ca:	92 e0       	ldi	r25, 0x02	; 2
     9cc:	9f 93       	push	r25
     9ce:	8f 93       	push	r24
     9d0:	8c e8       	ldi	r24, 0x8C	; 140
     9d2:	92 e0       	ldi	r25, 0x02	; 2
     9d4:	9f 93       	push	r25
     9d6:	8f 93       	push	r24
     9d8:	0e 94 a0 0c 	call	0x1940	; 0x1940 <sprintf>
		//sprintf(response, "%s", command);
		if(answer_to_usb) usb_write(response); else uart_print(response);
     9dc:	8d b7       	in	r24, 0x3d	; 61
     9de:	9e b7       	in	r25, 0x3e	; 62
     9e0:	08 96       	adiw	r24, 0x08	; 8
     9e2:	0f b6       	in	r0, 0x3f	; 63
     9e4:	f8 94       	cli
     9e6:	9e bf       	out	0x3e, r25	; 62
     9e8:	0f be       	out	0x3f, r0	; 63
     9ea:	8d bf       	out	0x3d, r24	; 61
     9ec:	00 23       	and	r16, r16
     9ee:	29 f0       	breq	.+10     	; 0x9fa <parse_and_execute_command+0x67e>
     9f0:	8c e8       	ldi	r24, 0x8C	; 140
     9f2:	92 e0       	ldi	r25, 0x02	; 2
     9f4:	0e 94 4b 01 	call	0x296	; 0x296 <usb_write>
     9f8:	04 c0       	rjmp	.+8      	; 0xa02 <parse_and_execute_command+0x686>
     9fa:	8c e8       	ldi	r24, 0x8C	; 140
     9fc:	92 e0       	ldi	r25, 0x02	; 2
     9fe:	0e 94 9c 01 	call	0x338	; 0x338 <uart_print>
	}
}
     a02:	df 91       	pop	r29
     a04:	cf 91       	pop	r28
     a06:	1f 91       	pop	r17
     a08:	0f 91       	pop	r16
     a0a:	ff 90       	pop	r15
     a0c:	ef 90       	pop	r14
     a0e:	08 95       	ret

00000a10 <main>:
*  | |  | | | (_| | | | | | | |  *
*  |_|  |_|  \__,_| |_| |_| |_|  *
*                                *
*********************************/

int main(void){
     a10:	cf 93       	push	r28
     a12:	df 93       	push	r29
     a14:	cd b7       	in	r28, 0x3d	; 61
     a16:	de b7       	in	r29, 0x3e	; 62
     a18:	60 97       	sbiw	r28, 0x10	; 16
     a1a:	0f b6       	in	r0, 0x3f	; 63
     a1c:	f8 94       	cli
     a1e:	de bf       	out	0x3e, r29	; 62
     a20:	0f be       	out	0x3f, r0	; 63
     a22:	cd bf       	out	0x3d, r28	; 61
	CLKPR = 0x80;
     a24:	e1 e6       	ldi	r30, 0x61	; 97
     a26:	f0 e0       	ldi	r31, 0x00	; 0
     a28:	80 e8       	ldi	r24, 0x80	; 128
     a2a:	80 83       	st	Z, r24
	CLKPR = 0x00;
     a2c:	10 82       	st	Z, r1
	
	init_ports_and_pins();
     a2e:	0e 94 dd 00 	call	0x1ba	; 0x1ba <init_ports_and_pins>
	init_timers();
     a32:	0e 94 f4 00 	call	0x1e8	; 0x1e8 <init_timers>
	
	#ifdef USB_ENABLED
		//init USB
		usb_init();
     a36:	0e 94 d4 09 	call	0x13a8	; 0x13a8 <usb_init>
	#else
		//round up by default
		__ticks_dc = (uint32_t)(ceil(fabs(__tmp)));
	#endif

	__builtin_avr_delay_cycles(__ticks_dc);
     a3a:	2f ef       	ldi	r18, 0xFF	; 255
     a3c:	81 ee       	ldi	r24, 0xE1	; 225
     a3e:	94 e0       	ldi	r25, 0x04	; 4
     a40:	21 50       	subi	r18, 0x01	; 1
     a42:	80 40       	sbci	r24, 0x00	; 0
     a44:	90 40       	sbci	r25, 0x00	; 0
     a46:	e1 f7       	brne	.-8      	; 0xa40 <main+0x30>
     a48:	00 c0       	rjmp	.+0      	; 0xa4a <main+0x3a>
     a4a:	00 00       	nop
		//while (!usb_configured());
		_delay_ms(100);
	#endif
	
	uart_init();
     a4c:	0e 94 90 01 	call	0x320	; 0x320 <uart_init>
	
	sei();
     a50:	78 94       	sei
	char buf[16];
	
	//send welcome message
	sprintf(response, "<connected_id:%d>\n", eeprom_read_byte(BOARD_ID));
     a52:	80 e0       	ldi	r24, 0x00	; 0
     a54:	90 e0       	ldi	r25, 0x00	; 0
     a56:	0e 94 41 0f 	call	0x1e82	; 0x1e82 <eeprom_read_byte>
     a5a:	1f 92       	push	r1
     a5c:	8f 93       	push	r24
     a5e:	87 e2       	ldi	r24, 0x27	; 39
     a60:	92 e0       	ldi	r25, 0x02	; 2
     a62:	9f 93       	push	r25
     a64:	8f 93       	push	r24
     a66:	8c e8       	ldi	r24, 0x8C	; 140
     a68:	92 e0       	ldi	r25, 0x02	; 2
     a6a:	9f 93       	push	r25
     a6c:	8f 93       	push	r24
     a6e:	0e 94 a0 0c 	call	0x1940	; 0x1940 <sprintf>
	usb_write(response);
     a72:	8c e8       	ldi	r24, 0x8C	; 140
     a74:	92 e0       	ldi	r25, 0x02	; 2
     a76:	0e 94 4b 01 	call	0x296	; 0x296 <usb_write>
	uart_print(response);
     a7a:	8c e8       	ldi	r24, 0x8C	; 140
     a7c:	92 e0       	ldi	r25, 0x02	; 2
     a7e:	0e 94 9c 01 	call	0x338	; 0x338 <uart_print>
	
	//initialize the NRF24L01+ module
	nrf24_init();
     a82:	0e 94 dc 07 	call	0xfb8	; 0xfb8 <nrf24_init>
	nrf24_config(2, 10);//RF_CH 127 => 2.400128GHz, 10 byte packets
     a86:	6a e0       	ldi	r22, 0x0A	; 10
     a88:	82 e0       	ldi	r24, 0x02	; 2
     a8a:	0e 94 c2 08 	call	0x1184	; 0x1184 <nrf24_config>
	nrf24_tx_address(tx_address);
     a8e:	80 e1       	ldi	r24, 0x10	; 16
     a90:	91 e0       	ldi	r25, 0x01	; 1
     a92:	0e 94 a3 09 	call	0x1346	; 0x1346 <nrf24_tx_address>
	nrf24_rx_address(rx_address);
     a96:	81 e0       	ldi	r24, 0x01	; 1
     a98:	91 e0       	ldi	r25, 0x01	; 1
     a9a:	0e 94 92 09 	call	0x1324	; 0x1324 <nrf24_rx_address>
	
	setLED(0, 0, 1, 0);
     a9e:	20 e0       	ldi	r18, 0x00	; 0
     aa0:	41 e0       	ldi	r20, 0x01	; 1
     aa2:	60 e0       	ldi	r22, 0x00	; 0
     aa4:	80 e0       	ldi	r24, 0x00	; 0
     aa6:	0e 94 0e 01 	call	0x21c	; 0x21c <setLED>
     aaa:	0f 90       	pop	r0
     aac:	0f 90       	pop	r0
     aae:	0f 90       	pop	r0
     ab0:	0f 90       	pop	r0
     ab2:	0f 90       	pop	r0
     ab4:	0f 90       	pop	r0
    while(1){
		if(uart_data_available){
			uart_data_available = 0;
			sprintf(response, "<sain:%s>\n", uart_buf);
     ab6:	0f 2e       	mov	r0, r31
     ab8:	fc e8       	ldi	r31, 0x8C	; 140
     aba:	ef 2e       	mov	r14, r31
     abc:	f2 e0       	ldi	r31, 0x02	; 2
     abe:	ff 2e       	mov	r15, r31
     ac0:	f0 2d       	mov	r31, r0
			}else{
				//tõenäoliselt, kui keegi saadab midagi ja aadress ei klapi on tegemist puldiga
			
				usb_write("Received:\n");
				for(int i = 0; i < 6; i++){
					sprintf(response, "%d. val=%d\n", i, data_array[i]);
     ac2:	0f 2e       	mov	r0, r31
     ac4:	f0 e5       	ldi	r31, 0x50	; 80
     ac6:	6f 2e       	mov	r6, r31
     ac8:	f2 e0       	ldi	r31, 0x02	; 2
     aca:	7f 2e       	mov	r7, r31
     acc:	f0 2d       	mov	r31, r0
     ace:	5e 2c       	mov	r5, r14
     ad0:	4f 2c       	mov	r4, r15
     ad2:	3e 2c       	mov	r3, r14
     ad4:	2f 2c       	mov	r2, r15
	nrf24_tx_address(tx_address);
	nrf24_rx_address(rx_address);
	
	setLED(0, 0, 1, 0);
    while(1){
		if(uart_data_available){
     ad6:	80 91 87 02 	lds	r24, 0x0287
     ada:	88 23       	and	r24, r24
     adc:	b9 f0       	breq	.+46     	; 0xb0c <__stack+0xd>
			uart_data_available = 0;
     ade:	10 92 87 02 	sts	0x0287, r1
			sprintf(response, "<sain:%s>\n", uart_buf);
     ae2:	86 ed       	ldi	r24, 0xD6	; 214
     ae4:	92 e0       	ldi	r25, 0x02	; 2
     ae6:	9f 93       	push	r25
     ae8:	8f 93       	push	r24
     aea:	8a e3       	ldi	r24, 0x3A	; 58
     aec:	92 e0       	ldi	r25, 0x02	; 2
     aee:	9f 93       	push	r25
     af0:	8f 93       	push	r24
     af2:	ff 92       	push	r15
     af4:	ef 92       	push	r14
     af6:	0e 94 a0 0c 	call	0x1940	; 0x1940 <sprintf>
			usb_write(response);
     afa:	c7 01       	movw	r24, r14
     afc:	0e 94 4b 01 	call	0x296	; 0x296 <usb_write>
     b00:	0f 90       	pop	r0
     b02:	0f 90       	pop	r0
     b04:	0f 90       	pop	r0
     b06:	0f 90       	pop	r0
     b08:	0f 90       	pop	r0
     b0a:	0f 90       	pop	r0
		}
		if(usb_serial_available()) {
     b0c:	0e 94 1c 0a 	call	0x1438	; 0x1438 <usb_serial_available>
     b10:	88 23       	and	r24, r24
     b12:	29 f1       	breq	.+74     	; 0xb5e <__stack+0x5f>
			setLED(1, 1, 0, 0);
     b14:	20 e0       	ldi	r18, 0x00	; 0
     b16:	40 e0       	ldi	r20, 0x00	; 0
     b18:	61 e0       	ldi	r22, 0x01	; 1
     b1a:	81 e0       	ldi	r24, 0x01	; 1
     b1c:	0e 94 0e 01 	call	0x21c	; 0x21c <setLED>
			uint16_t n = recv_str(buf, sizeof(buf));
     b20:	60 e1       	ldi	r22, 0x10	; 16
     b22:	ce 01       	movw	r24, r28
     b24:	01 96       	adiw	r24, 0x01	; 1
     b26:	0e 94 5a 01 	call	0x2b4	; 0x2b4 <recv_str>
     b2a:	18 2f       	mov	r17, r24
			setLED(1, 0, 1, 0);
     b2c:	20 e0       	ldi	r18, 0x00	; 0
     b2e:	41 e0       	ldi	r20, 0x01	; 1
     b30:	60 e0       	ldi	r22, 0x00	; 0
     b32:	81 e0       	ldi	r24, 0x01	; 1
     b34:	0e 94 0e 01 	call	0x21c	; 0x21c <setLED>
			if (n == sizeof(buf)) {
     b38:	10 31       	cpi	r17, 0x10	; 16
     b3a:	89 f4       	brne	.+34     	; 0xb5e <__stack+0x5f>
				setLED(1, 0, 0, 1);
     b3c:	21 e0       	ldi	r18, 0x01	; 1
     b3e:	40 e0       	ldi	r20, 0x00	; 0
     b40:	60 e0       	ldi	r22, 0x00	; 0
     b42:	81 e0       	ldi	r24, 0x01	; 1
     b44:	0e 94 0e 01 	call	0x21c	; 0x21c <setLED>
				parse_and_execute_command(buf, 1);
     b48:	61 e0       	ldi	r22, 0x01	; 1
     b4a:	ce 01       	movw	r24, r28
     b4c:	01 96       	adiw	r24, 0x01	; 1
     b4e:	0e 94 be 01 	call	0x37c	; 0x37c <parse_and_execute_command>
				setLED(1, 1, 1, 1);
     b52:	21 e0       	ldi	r18, 0x01	; 1
     b54:	41 e0       	ldi	r20, 0x01	; 1
     b56:	61 e0       	ldi	r22, 0x01	; 1
     b58:	81 e0       	ldi	r24, 0x01	; 1
     b5a:	0e 94 0e 01 	call	0x21c	; 0x21c <setLED>
			
			}
		}
		
		no_data_from_nrf_count++;
     b5e:	80 91 86 02 	lds	r24, 0x0286
     b62:	8f 5f       	subi	r24, 0xFF	; 255
		if(no_data_from_nrf_count>200) 
     b64:	89 3c       	cpi	r24, 0xC9	; 201
     b66:	18 f4       	brcc	.+6      	; 0xb6e <__stack+0x6f>
				setLED(1, 1, 1, 1);
			
			}
		}
		
		no_data_from_nrf_count++;
     b68:	80 93 86 02 	sts	0x0286, r24
     b6c:	03 c0       	rjmp	.+6      	; 0xb74 <__stack+0x75>
		if(no_data_from_nrf_count>200) 
			no_data_from_nrf_count = 200;
     b6e:	88 ec       	ldi	r24, 0xC8	; 200
     b70:	80 93 86 02 	sts	0x0286, r24
				}
				
				
				if(data_array[6] & (1 << 0)){
					//Armed
					is_armed = 1;
     b74:	99 24       	eor	r9, r9
     b76:	93 94       	inc	r9
					//Võiks vahetada, kas autode kontrollimisel juhtida üht või teist
					robot_to_control = 1;
				}else if(   data_array[7] & (1 << 5)   ){
					//Buzzer off
					//Võiks vahetada, kas autode kontrollimisel juhtida üht või teist
					robot_to_control = 2;
     b78:	68 94       	set
     b7a:	88 24       	eor	r8, r8
     b7c:	81 f8       	bld	r8, 1
						uart_print(response);
						usb_write("<sent_to_uart:");
						usb_write(response);
						usb_write(">\n");
					}
					sprintf(response, "%d:sd%i\n", robot_to_control, speed);
     b7e:	0f 2e       	mov	r0, r31
     b80:	fa e5       	ldi	r31, 0x5A	; 90
     b82:	af 2e       	mov	r10, r31
     b84:	f1 e0       	ldi	r31, 0x01	; 1
     b86:	bf 2e       	mov	r11, r31
     b88:	f0 2d       	mov	r31, r0
     b8a:	01 c2       	rjmp	.+1026   	; 0xf8e <__stack+0x48f>
		no_data_from_nrf_count++;
		if(no_data_from_nrf_count>200) 
			no_data_from_nrf_count = 200;
			
		while(nrf24_dataReady()){
			nrf24_getData(data_array);
     b8c:	8c ec       	ldi	r24, 0xCC	; 204
     b8e:	92 e0       	ldi	r25, 0x02	; 2
     b90:	0e 94 91 08 	call	0x1122	; 0x1122 <nrf24_getData>
			if(data_array[0] == 0xE1  ||  data_array[0] == 0xE2){
     b94:	20 91 cc 02 	lds	r18, 0x02CC
     b98:	21 5e       	subi	r18, 0xE1	; 225
     b9a:	22 30       	cpi	r18, 0x02	; 2
     b9c:	08 f4       	brcc	.+2      	; 0xba0 <__stack+0xa1>
     b9e:	f7 c1       	rjmp	.+1006   	; 0xf8e <__stack+0x48f>
				//Tegemist on maapealse robotiga
				
			}else{
				//tõenäoliselt, kui keegi saadab midagi ja aadress ei klapi on tegemist puldiga
			
				usb_write("Received:\n");
     ba0:	85 e4       	ldi	r24, 0x45	; 69
     ba2:	92 e0       	ldi	r25, 0x02	; 2
     ba4:	0e 94 4b 01 	call	0x296	; 0x296 <usb_write>
     ba8:	0f 2e       	mov	r0, r31
     baa:	fc ec       	ldi	r31, 0xCC	; 204
     bac:	cf 2e       	mov	r12, r31
     bae:	f2 e0       	ldi	r31, 0x02	; 2
     bb0:	df 2e       	mov	r13, r31
     bb2:	f0 2d       	mov	r31, r0
				for(int i = 0; i < 6; i++){
     bb4:	00 e0       	ldi	r16, 0x00	; 0
     bb6:	10 e0       	ldi	r17, 0x00	; 0
					sprintf(response, "%d. val=%d\n", i, data_array[i]);
     bb8:	d6 01       	movw	r26, r12
     bba:	2d 91       	ld	r18, X+
     bbc:	6d 01       	movw	r12, r26
     bbe:	1f 92       	push	r1
     bc0:	2f 93       	push	r18
     bc2:	1f 93       	push	r17
     bc4:	0f 93       	push	r16
     bc6:	7f 92       	push	r7
     bc8:	6f 92       	push	r6
     bca:	ff 92       	push	r15
     bcc:	ef 92       	push	r14
     bce:	0e 94 a0 0c 	call	0x1940	; 0x1940 <sprintf>
					usb_write(response);
     bd2:	83 2d       	mov	r24, r3
     bd4:	92 2d       	mov	r25, r2
     bd6:	0e 94 4b 01 	call	0x296	; 0x296 <usb_write>
				
			}else{
				//tõenäoliselt, kui keegi saadab midagi ja aadress ei klapi on tegemist puldiga
			
				usb_write("Received:\n");
				for(int i = 0; i < 6; i++){
     bda:	0f 5f       	subi	r16, 0xFF	; 255
     bdc:	1f 4f       	sbci	r17, 0xFF	; 255
     bde:	0f b6       	in	r0, 0x3f	; 63
     be0:	f8 94       	cli
     be2:	de bf       	out	0x3e, r29	; 62
     be4:	0f be       	out	0x3f, r0	; 63
     be6:	cd bf       	out	0x3d, r28	; 61
     be8:	06 30       	cpi	r16, 0x06	; 6
     bea:	11 05       	cpc	r17, r1
     bec:	29 f7       	brne	.-54     	; 0xbb8 <__stack+0xb9>
					sprintf(response, "%d. val=%d\n", i, data_array[i]);
					usb_write(response);
				}
				
				
				if(data_array[6] & (1 << 0)){
     bee:	80 91 d2 02 	lds	r24, 0x02D2
     bf2:	80 ff       	sbrs	r24, 0
     bf4:	07 c0       	rjmp	.+14     	; 0xc04 <__stack+0x105>
					//Armed
					is_armed = 1;
     bf6:	90 92 84 02 	sts	0x0284, r9
					usb_write("Armed\n");
     bfa:	8c e5       	ldi	r24, 0x5C	; 92
     bfc:	92 e0       	ldi	r25, 0x02	; 2
     bfe:	0e 94 4b 01 	call	0x296	; 0x296 <usb_write>
     c02:	02 c0       	rjmp	.+4      	; 0xc08 <__stack+0x109>
				}else{
					//Not armed
					is_armed = 0;
     c04:	10 92 84 02 	sts	0x0284, r1
				}
				
				if(   data_array[7] & (1 << 0)   ){
     c08:	80 91 d3 02 	lds	r24, 0x02D3
				if(   data_array[7] & (1 << 2)   ){
					//FPV on
				}else if(   data_array[7] & (1 << 3)   ){
					//FPV off
				}
				if(   data_array[7] & (1 << 4)   ){
     c0c:	84 ff       	sbrs	r24, 4
     c0e:	03 c0       	rjmp	.+6      	; 0xc16 <__stack+0x117>
					//Buzzer on
					//Võiks vahetada, kas autode kontrollimisel juhtida üht või teist
					robot_to_control = 1;
     c10:	90 92 00 01 	sts	0x0100, r9
     c14:	03 c0       	rjmp	.+6      	; 0xc1c <__stack+0x11d>
				}else if(   data_array[7] & (1 << 5)   ){
     c16:	85 fd       	sbrc	r24, 5
					//Buzzer off
					//Võiks vahetada, kas autode kontrollimisel juhtida üht või teist
					robot_to_control = 2;
     c18:	80 92 00 01 	sts	0x0100, r8
				}
				if(   data_array[1] < 5   &&  data_array[0] < 5   &&   is_armed){
     c1c:	80 91 cd 02 	lds	r24, 0x02CD
     c20:	85 30       	cpi	r24, 0x05	; 5
     c22:	08 f0       	brcs	.+2      	; 0xc26 <__stack+0x127>
     c24:	73 c0       	rjmp	.+230    	; 0xd0c <__stack+0x20d>
     c26:	80 91 cc 02 	lds	r24, 0x02CC
     c2a:	85 30       	cpi	r24, 0x05	; 5
     c2c:	08 f0       	brcs	.+2      	; 0xc30 <__stack+0x131>
     c2e:	6e c0       	rjmp	.+220    	; 0xd0c <__stack+0x20d>
     c30:	80 91 84 02 	lds	r24, 0x0284
     c34:	88 23       	and	r24, r24
     c36:	09 f4       	brne	.+2      	; 0xc3a <__stack+0x13b>
     c38:	69 c0       	rjmp	.+210    	; 0xd0c <__stack+0x20d>
					//Yaw stick left
					//See võiks tamiili läbi kärsatada
					sprintf(buf, "Tamiil: %d\n", data_array[4]);
     c3a:	80 91 d0 02 	lds	r24, 0x02D0
     c3e:	1f 92       	push	r1
     c40:	8f 93       	push	r24
     c42:	a3 e6       	ldi	r26, 0x63	; 99
     c44:	b2 e0       	ldi	r27, 0x02	; 2
     c46:	bf 93       	push	r27
     c48:	af 93       	push	r26
     c4a:	81 e0       	ldi	r24, 0x01	; 1
     c4c:	90 e0       	ldi	r25, 0x00	; 0
     c4e:	8c 0f       	add	r24, r28
     c50:	9d 1f       	adc	r25, r29
     c52:	9f 93       	push	r25
     c54:	8f 93       	push	r24
     c56:	0e 94 a0 0c 	call	0x1940	; 0x1940 <sprintf>
					usb_write(buf);
     c5a:	ce 01       	movw	r24, r28
     c5c:	01 96       	adiw	r24, 0x01	; 1
     c5e:	0e 94 4b 01 	call	0x296	; 0x296 <usb_write>
					
					if(robot_to_control == 1){
     c62:	0f 90       	pop	r0
     c64:	0f 90       	pop	r0
     c66:	0f 90       	pop	r0
     c68:	0f 90       	pop	r0
     c6a:	0f 90       	pop	r0
     c6c:	0f 90       	pop	r0
     c6e:	80 91 00 01 	lds	r24, 0x0100
     c72:	81 30       	cpi	r24, 0x01	; 1
     c74:	29 f4       	brne	.+10     	; 0xc80 <__stack+0x181>
						//Tahetakse juhtida alumist robotit nr. 1
						nrf24_tx_address(tx_address_l1);
     c76:	8b e0       	ldi	r24, 0x0B	; 11
     c78:	91 e0       	ldi	r25, 0x01	; 1
     c7a:	0e 94 a3 09 	call	0x1346	; 0x1346 <nrf24_tx_address>
     c7e:	04 c0       	rjmp	.+8      	; 0xc88 <__stack+0x189>
					}else{
						//Tahetakse juhtida alumist robotit nr. 2
						nrf24_tx_address(tx_address_l2);
     c80:	86 e0       	ldi	r24, 0x06	; 6
     c82:	91 e0       	ldi	r25, 0x01	; 1
     c84:	0e 94 a3 09 	call	0x1346	; 0x1346 <nrf24_tx_address>
					}
					
					data_array[0] = 0xE7;	//Sent from main board
     c88:	ec ec       	ldi	r30, 0xCC	; 204
     c8a:	f2 e0       	ldi	r31, 0x02	; 2
     c8c:	87 ee       	ldi	r24, 0xE7	; 231
     c8e:	80 83       	st	Z, r24
					data_array[1] = 0x03;	//Cut the line
     c90:	83 e0       	ldi	r24, 0x03	; 3
     c92:	81 83       	std	Z+1, r24	; 0x01
					data_array[2] = data_array[4] & 0xFF;
     c94:	84 81       	ldd	r24, Z+4	; 0x04
     c96:	82 83       	std	Z+2, r24	; 0x02
					data_array[3] = 0 >> 8;
     c98:	13 82       	std	Z+3, r1	; 0x03
					nrf24_send(data_array);
     c9a:	cf 01       	movw	r24, r30
     c9c:	0e 94 05 09 	call	0x120a	; 0x120a <nrf24_send>
					while(nrf24_isSending());
     ca0:	0e 94 2c 08 	call	0x1058	; 0x1058 <nrf24_isSending>
     ca4:	81 11       	cpse	r24, r1
     ca6:	fc cf       	rjmp	.-8      	; 0xca0 <__stack+0x1a1>
					uint8_t temp = nrf24_lastMessageStatus();
     ca8:	0e 94 34 08 	call	0x1068	; 0x1068 <nrf24_lastMessageStatus>
     cac:	18 2f       	mov	r17, r24
					uint8_t connection_quality = nrf24_retransmissionCount();
     cae:	0e 94 65 09 	call	0x12ca	; 0x12ca <nrf24_retransmissionCount>
     cb2:	08 2f       	mov	r16, r24
					nrf24_tx_address(tx_address);
     cb4:	80 e1       	ldi	r24, 0x10	; 16
     cb6:	91 e0       	ldi	r25, 0x01	; 1
     cb8:	0e 94 a3 09 	call	0x1346	; 0x1346 <nrf24_tx_address>
					nrf24_powerUpRx();
     cbc:	0e 94 aa 08 	call	0x1154	; 0x1154 <nrf24_powerUpRx>
					if(temp == NRF24_MESSAGE_LOST){
     cc0:	11 30       	cpi	r17, 0x01	; 1
     cc2:	29 f4       	brne	.+10     	; 0xcce <__stack+0x1cf>
						usb_write("<message:lost>\n");
     cc4:	82 e7       	ldi	r24, 0x72	; 114
     cc6:	91 e0       	ldi	r25, 0x01	; 1
     cc8:	0e 94 4b 01 	call	0x296	; 0x296 <usb_write>
     ccc:	0b c0       	rjmp	.+22     	; 0xce4 <__stack+0x1e5>
					}else if(temp == NRF24_TRANSMISSON_OK){
     cce:	11 11       	cpse	r17, r1
     cd0:	05 c0       	rjmp	.+10     	; 0xcdc <__stack+0x1dd>
						usb_write("<message:sent>\n");
     cd2:	82 e8       	ldi	r24, 0x82	; 130
     cd4:	91 e0       	ldi	r25, 0x01	; 1
     cd6:	0e 94 4b 01 	call	0x296	; 0x296 <usb_write>
     cda:	04 c0       	rjmp	.+8      	; 0xce4 <__stack+0x1e5>
					}else{
						usb_write("Something is really wrong!!!");
     cdc:	82 e9       	ldi	r24, 0x92	; 146
     cde:	91 e0       	ldi	r25, 0x01	; 1
     ce0:	0e 94 4b 01 	call	0x296	; 0x296 <usb_write>
					}
					sprintf(response, "<quality:%d>\n", connection_quality);
     ce4:	1f 92       	push	r1
     ce6:	0f 93       	push	r16
     ce8:	af ea       	ldi	r26, 0xAF	; 175
     cea:	b1 e0       	ldi	r27, 0x01	; 1
     cec:	bf 93       	push	r27
     cee:	af 93       	push	r26
     cf0:	ff 92       	push	r15
     cf2:	ef 92       	push	r14
     cf4:	0e 94 a0 0c 	call	0x1940	; 0x1940 <sprintf>
					usb_write(response);
     cf8:	85 2d       	mov	r24, r5
     cfa:	94 2d       	mov	r25, r4
     cfc:	0e 94 4b 01 	call	0x296	; 0x296 <usb_write>
     d00:	0f 90       	pop	r0
     d02:	0f 90       	pop	r0
     d04:	0f 90       	pop	r0
     d06:	0f 90       	pop	r0
     d08:	0f 90       	pop	r0
     d0a:	0f 90       	pop	r0
				}
				if(   data_array[7] & (1 << 7)   ){
					//Not currently used, add something fun here!
				}
				
				if(data_array[6] & (1 << 1)){
     d0c:	80 91 d2 02 	lds	r24, 0x02D2
     d10:	81 ff       	sbrs	r24, 1
     d12:	76 c0       	rjmp	.+236    	; 0xe00 <__stack+0x301>
					//Flight mode 1
					usb_write("Ulemised\n");
     d14:	8f e6       	ldi	r24, 0x6F	; 111
     d16:	92 e0       	ldi	r25, 0x02	; 2
     d18:	0e 94 4b 01 	call	0x296	; 0x296 <usb_write>
					should_control_lower_robots = 0;
     d1c:	10 92 85 02 	sts	0x0285, r1
					
					int16_t speed = 0;
					if(data_array[2] < 95){
     d20:	00 91 ce 02 	lds	r16, 0x02CE
     d24:	0f 35       	cpi	r16, 0x5F	; 95
     d26:	20 f4       	brcc	.+8      	; 0xd30 <__stack+0x231>
						speed = data_array[2] - 95;
     d28:	10 e0       	ldi	r17, 0x00	; 0
     d2a:	0f 55       	subi	r16, 0x5F	; 95
     d2c:	11 09       	sbc	r17, r1
     d2e:	08 c0       	rjmp	.+16     	; 0xd40 <__stack+0x241>
					}else if(data_array[2] > 105){
     d30:	0a 36       	cpi	r16, 0x6A	; 106
     d32:	20 f0       	brcs	.+8      	; 0xd3c <__stack+0x23d>
						speed = data_array[2] - 105;
     d34:	10 e0       	ldi	r17, 0x00	; 0
     d36:	09 56       	subi	r16, 0x69	; 105
     d38:	11 09       	sbc	r17, r1
     d3a:	02 c0       	rjmp	.+4      	; 0xd40 <__stack+0x241>
				if(data_array[6] & (1 << 1)){
					//Flight mode 1
					usb_write("Ulemised\n");
					should_control_lower_robots = 0;
					
					int16_t speed = 0;
     d3c:	00 e0       	ldi	r16, 0x00	; 0
     d3e:	10 e0       	ldi	r17, 0x00	; 0
					if(data_array[2] < 95){
						speed = data_array[2] - 95;
					}else if(data_array[2] > 105){
						speed = data_array[2] - 105;
					}
					if(!is_armed){
     d40:	20 91 84 02 	lds	r18, 0x0284
     d44:	21 11       	cpse	r18, r1
     d46:	02 c0       	rjmp	.+4      	; 0xd4c <__stack+0x24d>
						speed = 0;
     d48:	00 e0       	ldi	r16, 0x00	; 0
     d4a:	10 e0       	ldi	r17, 0x00	; 0
					}
					if(robot_to_control == 2){
     d4c:	80 91 00 01 	lds	r24, 0x0100
     d50:	82 30       	cpi	r24, 0x02	; 2
     d52:	a1 f5       	brne	.+104    	; 0xdbc <__stack+0x2bd>
						int16_t vspeed = 0;
						if(data_array[3] < 95){
     d54:	80 91 cf 02 	lds	r24, 0x02CF
     d58:	8f 35       	cpi	r24, 0x5F	; 95
     d5a:	20 f4       	brcc	.+8      	; 0xd64 <__stack+0x265>
							vspeed = data_array[3] - 95;
     d5c:	90 e0       	ldi	r25, 0x00	; 0
     d5e:	8f 55       	subi	r24, 0x5F	; 95
     d60:	91 09       	sbc	r25, r1
     d62:	08 c0       	rjmp	.+16     	; 0xd74 <__stack+0x275>
						}else if(data_array[3] > 105){
     d64:	8a 36       	cpi	r24, 0x6A	; 106
     d66:	20 f0       	brcs	.+8      	; 0xd70 <__stack+0x271>
							vspeed = data_array[3] - 105;
     d68:	90 e0       	ldi	r25, 0x00	; 0
     d6a:	89 56       	subi	r24, 0x69	; 105
     d6c:	91 09       	sbc	r25, r1
     d6e:	02 c0       	rjmp	.+4      	; 0xd74 <__stack+0x275>
						}else{
							vspeed = 0;
     d70:	80 e0       	ldi	r24, 0x00	; 0
     d72:	90 e0       	ldi	r25, 0x00	; 0
						}
						if(!is_armed){
     d74:	21 11       	cpse	r18, r1
     d76:	02 c0       	rjmp	.+4      	; 0xd7c <__stack+0x27d>
							vspeed = 0;
     d78:	80 e0       	ldi	r24, 0x00	; 0
     d7a:	90 e0       	ldi	r25, 0x00	; 0
						}
						sprintf(response, "%d:sd%i\n", 3, vspeed);
     d7c:	9f 93       	push	r25
     d7e:	8f 93       	push	r24
     d80:	1f 92       	push	r1
     d82:	83 e0       	ldi	r24, 0x03	; 3
     d84:	8f 93       	push	r24
     d86:	bf 92       	push	r11
     d88:	af 92       	push	r10
     d8a:	ff 92       	push	r15
     d8c:	ef 92       	push	r14
     d8e:	0e 94 a0 0c 	call	0x1940	; 0x1940 <sprintf>
						uart_print(response);
     d92:	85 2d       	mov	r24, r5
     d94:	94 2d       	mov	r25, r4
     d96:	0e 94 9c 01 	call	0x338	; 0x338 <uart_print>
						usb_write("<sent_to_uart:");
     d9a:	83 e6       	ldi	r24, 0x63	; 99
     d9c:	91 e0       	ldi	r25, 0x01	; 1
     d9e:	0e 94 4b 01 	call	0x296	; 0x296 <usb_write>
						usb_write(response);
     da2:	85 2d       	mov	r24, r5
     da4:	94 2d       	mov	r25, r4
     da6:	0e 94 4b 01 	call	0x296	; 0x296 <usb_write>
						usb_write(">\n");
     daa:	88 ed       	ldi	r24, 0xD8	; 216
     dac:	91 e0       	ldi	r25, 0x01	; 1
     dae:	0e 94 4b 01 	call	0x296	; 0x296 <usb_write>
     db2:	0f b6       	in	r0, 0x3f	; 63
     db4:	f8 94       	cli
     db6:	de bf       	out	0x3e, r29	; 62
     db8:	0f be       	out	0x3f, r0	; 63
     dba:	cd bf       	out	0x3d, r28	; 61
					}
					sprintf(response, "%d:sd%i\n", robot_to_control, speed);
     dbc:	1f 93       	push	r17
     dbe:	0f 93       	push	r16
     dc0:	80 91 00 01 	lds	r24, 0x0100
     dc4:	1f 92       	push	r1
     dc6:	8f 93       	push	r24
     dc8:	bf 92       	push	r11
     dca:	af 92       	push	r10
     dcc:	ff 92       	push	r15
     dce:	ef 92       	push	r14
     dd0:	0e 94 a0 0c 	call	0x1940	; 0x1940 <sprintf>
					uart_print(response);
     dd4:	85 2d       	mov	r24, r5
     dd6:	94 2d       	mov	r25, r4
     dd8:	0e 94 9c 01 	call	0x338	; 0x338 <uart_print>
					usb_write("<sent_to_uart:");
     ddc:	83 e6       	ldi	r24, 0x63	; 99
     dde:	91 e0       	ldi	r25, 0x01	; 1
     de0:	0e 94 4b 01 	call	0x296	; 0x296 <usb_write>
					usb_write(response);
     de4:	85 2d       	mov	r24, r5
     de6:	94 2d       	mov	r25, r4
     de8:	0e 94 4b 01 	call	0x296	; 0x296 <usb_write>
					usb_write(">\n");
     dec:	88 ed       	ldi	r24, 0xD8	; 216
     dee:	91 e0       	ldi	r25, 0x01	; 1
     df0:	0e 94 4b 01 	call	0x296	; 0x296 <usb_write>
     df4:	0f b6       	in	r0, 0x3f	; 63
     df6:	f8 94       	cli
     df8:	de bf       	out	0x3e, r29	; 62
     dfa:	0f be       	out	0x3f, r0	; 63
     dfc:	cd bf       	out	0x3d, r28	; 61
     dfe:	c7 c0       	rjmp	.+398    	; 0xf8e <__stack+0x48f>
				}else{
					//Flight mode 2
					should_control_lower_robots = 1;
     e00:	90 92 85 02 	sts	0x0285, r9
					usb_write("alumised\n");
     e04:	89 e7       	ldi	r24, 0x79	; 121
     e06:	92 e0       	ldi	r25, 0x02	; 2
     e08:	0e 94 4b 01 	call	0x296	; 0x296 <usb_write>
					
					if(is_armed){
     e0c:	80 91 84 02 	lds	r24, 0x0284
     e10:	88 23       	and	r24, r24
     e12:	09 f4       	brne	.+2      	; 0xe16 <__stack+0x317>
     e14:	bc c0       	rjmp	.+376    	; 0xf8e <__stack+0x48f>
						if(data_array[3] < 95){
     e16:	80 91 cf 02 	lds	r24, 0x02CF
     e1a:	8f 35       	cpi	r24, 0x5F	; 95
     e1c:	c8 f4       	brcc	.+50     	; 0xe50 <__stack+0x351>
							motor_right_speed_buffer = motor_left_speed_buffer = (data_array[2] - 95)*data_array[5]/10; //pmst pitch määrab kiiruse, l-aux määrab kordaja
     e1e:	ec ec       	ldi	r30, 0xCC	; 204
     e20:	f2 e0       	ldi	r31, 0x02	; 2
     e22:	22 81       	ldd	r18, Z+2	; 0x02
     e24:	30 e0       	ldi	r19, 0x00	; 0
     e26:	2f 55       	subi	r18, 0x5F	; 95
     e28:	31 09       	sbc	r19, r1
     e2a:	45 81       	ldd	r20, Z+5	; 0x05
     e2c:	42 9f       	mul	r20, r18
     e2e:	c0 01       	movw	r24, r0
     e30:	43 9f       	mul	r20, r19
     e32:	90 0d       	add	r25, r0
     e34:	11 24       	eor	r1, r1
     e36:	6a e0       	ldi	r22, 0x0A	; 10
     e38:	70 e0       	ldi	r23, 0x00	; 0
     e3a:	0e 94 52 0c 	call	0x18a4	; 0x18a4 <__divmodhi4>
     e3e:	70 93 18 01 	sts	0x0118, r23
     e42:	60 93 17 01 	sts	0x0117, r22
     e46:	70 93 16 01 	sts	0x0116, r23
     e4a:	60 93 15 01 	sts	0x0115, r22
     e4e:	24 c0       	rjmp	.+72     	; 0xe98 <__stack+0x399>
						}else if(data_array[3] > 105){
     e50:	8a 36       	cpi	r24, 0x6A	; 106
     e52:	c8 f0       	brcs	.+50     	; 0xe86 <__stack+0x387>
							motor_right_speed_buffer = motor_left_speed_buffer = (data_array[2] - 105)*data_array[5]/10; //pmst pitch määrab kiiruse, l-aux määrab kordaja
     e54:	ec ec       	ldi	r30, 0xCC	; 204
     e56:	f2 e0       	ldi	r31, 0x02	; 2
     e58:	22 81       	ldd	r18, Z+2	; 0x02
     e5a:	30 e0       	ldi	r19, 0x00	; 0
     e5c:	29 56       	subi	r18, 0x69	; 105
     e5e:	31 09       	sbc	r19, r1
     e60:	45 81       	ldd	r20, Z+5	; 0x05
     e62:	42 9f       	mul	r20, r18
     e64:	c0 01       	movw	r24, r0
     e66:	43 9f       	mul	r20, r19
     e68:	90 0d       	add	r25, r0
     e6a:	11 24       	eor	r1, r1
     e6c:	6a e0       	ldi	r22, 0x0A	; 10
     e6e:	70 e0       	ldi	r23, 0x00	; 0
     e70:	0e 94 52 0c 	call	0x18a4	; 0x18a4 <__divmodhi4>
     e74:	70 93 18 01 	sts	0x0118, r23
     e78:	60 93 17 01 	sts	0x0117, r22
     e7c:	70 93 16 01 	sts	0x0116, r23
     e80:	60 93 15 01 	sts	0x0115, r22
     e84:	09 c0       	rjmp	.+18     	; 0xe98 <__stack+0x399>
						}else{
							motor_right_speed_buffer = motor_left_speed_buffer = 0;
     e86:	10 92 17 01 	sts	0x0117, r1
     e8a:	10 92 18 01 	sts	0x0118, r1
     e8e:	10 92 15 01 	sts	0x0115, r1
     e92:	10 92 16 01 	sts	0x0116, r1
     e96:	23 c0       	rjmp	.+70     	; 0xede <__stack+0x3df>
						}
					
						if(motor_right_speed_buffer != 0){
     e98:	20 91 15 01 	lds	r18, 0x0115
     e9c:	30 91 16 01 	lds	r19, 0x0116
     ea0:	21 15       	cp	r18, r1
     ea2:	31 05       	cpc	r19, r1
     ea4:	e1 f0       	breq	.+56     	; 0xede <__stack+0x3df>
							motor_right_speed_buffer *= -1;
					
							motor_right_speed_buffer	+= data_array[3] * data_array[4] / 20;
     ea6:	ec ec       	ldi	r30, 0xCC	; 204
     ea8:	f2 e0       	ldi	r31, 0x02	; 2
     eaa:	83 81       	ldd	r24, Z+3	; 0x03
     eac:	94 81       	ldd	r25, Z+4	; 0x04
     eae:	89 9f       	mul	r24, r25
     eb0:	c0 01       	movw	r24, r0
     eb2:	11 24       	eor	r1, r1
     eb4:	64 e1       	ldi	r22, 0x14	; 20
     eb6:	70 e0       	ldi	r23, 0x00	; 0
     eb8:	0e 94 52 0c 	call	0x18a4	; 0x18a4 <__divmodhi4>
     ebc:	cb 01       	movw	r24, r22
     ebe:	82 1b       	sub	r24, r18
     ec0:	93 0b       	sbc	r25, r19
     ec2:	90 93 16 01 	sts	0x0116, r25
     ec6:	80 93 15 01 	sts	0x0115, r24
							motor_left_speed_buffer		+= data_array[3] * data_array[4] / 20; 
     eca:	80 91 17 01 	lds	r24, 0x0117
     ece:	90 91 18 01 	lds	r25, 0x0118
     ed2:	68 0f       	add	r22, r24
     ed4:	79 1f       	adc	r23, r25
     ed6:	70 93 18 01 	sts	0x0118, r23
     eda:	60 93 17 01 	sts	0x0117, r22
						}
					
						if(robot_to_control == 1){
     ede:	80 91 00 01 	lds	r24, 0x0100
     ee2:	81 30       	cpi	r24, 0x01	; 1
     ee4:	29 f4       	brne	.+10     	; 0xef0 <__stack+0x3f1>
							//Tahetakse juhtida alumist robotit nr. 1
							nrf24_tx_address(tx_address_l1);
     ee6:	8b e0       	ldi	r24, 0x0B	; 11
     ee8:	91 e0       	ldi	r25, 0x01	; 1
     eea:	0e 94 a3 09 	call	0x1346	; 0x1346 <nrf24_tx_address>
     eee:	04 c0       	rjmp	.+8      	; 0xef8 <__stack+0x3f9>
						}else{
							//Tahetakse juhtida alumist robotit nr. 2
							nrf24_tx_address(tx_address_l2);
     ef0:	86 e0       	ldi	r24, 0x06	; 6
     ef2:	91 e0       	ldi	r25, 0x01	; 1
     ef4:	0e 94 a3 09 	call	0x1346	; 0x1346 <nrf24_tx_address>
						}
						data_array[0] = 0xE7;	//Sent from main board
     ef8:	ec ec       	ldi	r30, 0xCC	; 204
     efa:	f2 e0       	ldi	r31, 0x02	; 2
     efc:	87 ee       	ldi	r24, 0xE7	; 231
     efe:	80 83       	st	Z, r24
						data_array[1] = 0x01;	//Want to change the speed of motors
     f00:	91 82       	std	Z+1, r9	; 0x01
						data_array[2] = motor_left_speed_buffer & 0xFF;
     f02:	90 91 17 01 	lds	r25, 0x0117
     f06:	80 91 18 01 	lds	r24, 0x0118
     f0a:	92 83       	std	Z+2, r25	; 0x02
						data_array[3] = motor_left_speed_buffer >> 8;
     f0c:	83 83       	std	Z+3, r24	; 0x03
						data_array[4] = motor_right_speed_buffer & 0xFF;
     f0e:	90 91 15 01 	lds	r25, 0x0115
     f12:	80 91 16 01 	lds	r24, 0x0116
     f16:	94 83       	std	Z+4, r25	; 0x04
						data_array[5] = motor_right_speed_buffer >> 8;
     f18:	85 83       	std	Z+5, r24	; 0x05
						data_array[6] = 0;		//Don't send anything back
     f1a:	16 82       	std	Z+6, r1	; 0x06
						nrf24_send(data_array);
     f1c:	cf 01       	movw	r24, r30
     f1e:	0e 94 05 09 	call	0x120a	; 0x120a <nrf24_send>
						while(nrf24_isSending());
     f22:	0e 94 2c 08 	call	0x1058	; 0x1058 <nrf24_isSending>
     f26:	81 11       	cpse	r24, r1
     f28:	fc cf       	rjmp	.-8      	; 0xf22 <__stack+0x423>
						uint8_t temp = nrf24_lastMessageStatus();
     f2a:	0e 94 34 08 	call	0x1068	; 0x1068 <nrf24_lastMessageStatus>
     f2e:	18 2f       	mov	r17, r24
						uint8_t connection_quality = nrf24_retransmissionCount();
     f30:	0e 94 65 09 	call	0x12ca	; 0x12ca <nrf24_retransmissionCount>
     f34:	08 2f       	mov	r16, r24
						nrf24_tx_address(tx_address);
     f36:	80 e1       	ldi	r24, 0x10	; 16
     f38:	91 e0       	ldi	r25, 0x01	; 1
     f3a:	0e 94 a3 09 	call	0x1346	; 0x1346 <nrf24_tx_address>
						nrf24_powerUpRx();
     f3e:	0e 94 aa 08 	call	0x1154	; 0x1154 <nrf24_powerUpRx>
						if(temp == NRF24_MESSAGE_LOST){
     f42:	11 30       	cpi	r17, 0x01	; 1
     f44:	29 f4       	brne	.+10     	; 0xf50 <__stack+0x451>
							usb_write("<message:lost>\n");
     f46:	82 e7       	ldi	r24, 0x72	; 114
     f48:	91 e0       	ldi	r25, 0x01	; 1
     f4a:	0e 94 4b 01 	call	0x296	; 0x296 <usb_write>
     f4e:	0b c0       	rjmp	.+22     	; 0xf66 <__stack+0x467>
						}else if(temp == NRF24_TRANSMISSON_OK){
     f50:	11 11       	cpse	r17, r1
     f52:	05 c0       	rjmp	.+10     	; 0xf5e <__stack+0x45f>
							usb_write("<message:sent>\n");
     f54:	82 e8       	ldi	r24, 0x82	; 130
     f56:	91 e0       	ldi	r25, 0x01	; 1
     f58:	0e 94 4b 01 	call	0x296	; 0x296 <usb_write>
     f5c:	04 c0       	rjmp	.+8      	; 0xf66 <__stack+0x467>
						}else{
							usb_write("Something is really wrong!!!");
     f5e:	82 e9       	ldi	r24, 0x92	; 146
     f60:	91 e0       	ldi	r25, 0x01	; 1
     f62:	0e 94 4b 01 	call	0x296	; 0x296 <usb_write>
						}
						sprintf(response, "<quality:%d>\n", connection_quality);
     f66:	1f 92       	push	r1
     f68:	0f 93       	push	r16
     f6a:	af ea       	ldi	r26, 0xAF	; 175
     f6c:	b1 e0       	ldi	r27, 0x01	; 1
     f6e:	bf 93       	push	r27
     f70:	af 93       	push	r26
     f72:	ff 92       	push	r15
     f74:	ef 92       	push	r14
     f76:	0e 94 a0 0c 	call	0x1940	; 0x1940 <sprintf>
						usb_write(response);
     f7a:	85 2d       	mov	r24, r5
     f7c:	94 2d       	mov	r25, r4
     f7e:	0e 94 4b 01 	call	0x296	; 0x296 <usb_write>
     f82:	0f 90       	pop	r0
     f84:	0f 90       	pop	r0
     f86:	0f 90       	pop	r0
     f88:	0f 90       	pop	r0
     f8a:	0f 90       	pop	r0
     f8c:	0f 90       	pop	r0
		
		no_data_from_nrf_count++;
		if(no_data_from_nrf_count>200) 
			no_data_from_nrf_count = 200;
			
		while(nrf24_dataReady()){
     f8e:	0e 94 57 09 	call	0x12ae	; 0x12ae <nrf24_dataReady>
     f92:	81 11       	cpse	r24, r1
     f94:	fb cd       	rjmp	.-1034   	; 0xb8c <__stack+0x8d>
     f96:	8f e1       	ldi	r24, 0x1F	; 31
     f98:	9e e4       	ldi	r25, 0x4E	; 78
     f9a:	01 97       	sbiw	r24, 0x01	; 1
     f9c:	f1 f7       	brne	.-4      	; 0xf9a <__stack+0x49b>
     f9e:	00 c0       	rjmp	.+0      	; 0xfa0 <__stack+0x4a1>
     fa0:	00 00       	nop
     fa2:	99 cd       	rjmp	.-1230   	; 0xad6 <main+0xc6>

00000fa4 <__vector_21>:
*   | |  | | | | | |_  |  __/ | |    | |    | |_| | | |_) | | |_  \__ \ *
*  |___| |_| |_|  \__|  \___| |_|    |_|     \__,_| | .__/   \__| |___/ *
*                                                   |_|                 *
************************************************************************/

ISR(TIMER0_COMPA_vect) {
     fa4:	1f 92       	push	r1
     fa6:	0f 92       	push	r0
     fa8:	0f b6       	in	r0, 0x3f	; 63
     faa:	0f 92       	push	r0
     fac:	11 24       	eor	r1, r1
	//fail_counter++;
     fae:	0f 90       	pop	r0
     fb0:	0f be       	out	0x3f, r0	; 63
     fb2:	0f 90       	pop	r0
     fb4:	1f 90       	pop	r1
     fb6:	18 95       	reti

00000fb8 <nrf24_init>:
uint8_t payload_len;

/* init the hardware pins */
void nrf24_init()
{
	nrf24_setupPins();
     fb8:	0e 94 b3 09 	call	0x1366	; 0x1366 <nrf24_setupPins>
	nrf24_ce_digitalWrite(LOW);
     fbc:	80 e0       	ldi	r24, 0x00	; 0
     fbe:	0e 94 b9 09 	call	0x1372	; 0x1372 <nrf24_ce_digitalWrite>
	nrf24_csn_digitalWrite(HIGH);
     fc2:	81 e0       	ldi	r24, 0x01	; 1
     fc4:	0e 94 bf 09 	call	0x137e	; 0x137e <nrf24_csn_digitalWrite>
     fc8:	08 95       	ret

00000fca <spi_transfer>:
	nrf24_configRegister(CONFIG,nrf24_CONFIG);
}

/* software spi routine */
uint8_t spi_transfer(uint8_t tx)
{
     fca:	ef 92       	push	r14
     fcc:	ff 92       	push	r15
     fce:	1f 93       	push	r17
     fd0:	cf 93       	push	r28
     fd2:	df 93       	push	r29
     fd4:	e8 2e       	mov	r14, r24
	uint8_t i = 0;
	uint8_t rx = 0;

	nrf24_sck_digitalWrite(LOW);
     fd6:	80 e0       	ldi	r24, 0x00	; 0
     fd8:	0e 94 c5 09 	call	0x138a	; 0x138a <nrf24_sck_digitalWrite>
     fdc:	c7 e0       	ldi	r28, 0x07	; 7
     fde:	d0 e0       	ldi	r29, 0x00	; 0

/* software spi routine */
uint8_t spi_transfer(uint8_t tx)
{
	uint8_t i = 0;
	uint8_t rx = 0;
     fe0:	10 e0       	ldi	r17, 0x00	; 0
	nrf24_sck_digitalWrite(LOW);

	for(i=0;i<8;i++)
	{

		if(tx & (1<<(7-i)))
     fe2:	f1 2c       	mov	r15, r1
     fe4:	97 01       	movw	r18, r14
     fe6:	0c 2e       	mov	r0, r28
     fe8:	02 c0       	rjmp	.+4      	; 0xfee <spi_transfer+0x24>
     fea:	35 95       	asr	r19
     fec:	27 95       	ror	r18
     fee:	0a 94       	dec	r0
     ff0:	e2 f7       	brpl	.-8      	; 0xfea <spi_transfer+0x20>
     ff2:	20 ff       	sbrs	r18, 0
     ff4:	04 c0       	rjmp	.+8      	; 0xffe <spi_transfer+0x34>
		{
			nrf24_mosi_digitalWrite(HIGH);
     ff6:	81 e0       	ldi	r24, 0x01	; 1
     ff8:	0e 94 cb 09 	call	0x1396	; 0x1396 <nrf24_mosi_digitalWrite>
     ffc:	03 c0       	rjmp	.+6      	; 0x1004 <spi_transfer+0x3a>
		}
		else
		{
			nrf24_mosi_digitalWrite(LOW);
     ffe:	80 e0       	ldi	r24, 0x00	; 0
    1000:	0e 94 cb 09 	call	0x1396	; 0x1396 <nrf24_mosi_digitalWrite>
		}

		nrf24_sck_digitalWrite(HIGH);
    1004:	81 e0       	ldi	r24, 0x01	; 1
    1006:	0e 94 c5 09 	call	0x138a	; 0x138a <nrf24_sck_digitalWrite>
	#else
		//round up by default
		__ticks_dc = (uint32_t)(ceil(fabs(__tmp)));
	#endif

	__builtin_avr_delay_cycles(__ticks_dc);
    100a:	8a e1       	ldi	r24, 0x1A	; 26
    100c:	8a 95       	dec	r24
    100e:	f1 f7       	brne	.-4      	; 0x100c <spi_transfer+0x42>
    1010:	00 c0       	rjmp	.+0      	; 0x1012 <spi_transfer+0x48>
_delay_us(10); //Added by me
		
		rx = rx << 1;
    1012:	11 0f       	add	r17, r17
		if(nrf24_miso_digitalRead())
    1014:	0e 94 d1 09 	call	0x13a2	; 0x13a2 <nrf24_miso_digitalRead>
    1018:	81 11       	cpse	r24, r1
		{
			rx |= 0x01;
    101a:	11 60       	ori	r17, 0x01	; 1
		}

		nrf24_sck_digitalWrite(LOW);
    101c:	80 e0       	ldi	r24, 0x00	; 0
    101e:	0e 94 c5 09 	call	0x138a	; 0x138a <nrf24_sck_digitalWrite>
    1022:	8a e1       	ldi	r24, 0x1A	; 26
    1024:	8a 95       	dec	r24
    1026:	f1 f7       	brne	.-4      	; 0x1024 <spi_transfer+0x5a>
    1028:	00 c0       	rjmp	.+0      	; 0x102a <spi_transfer+0x60>
    102a:	21 97       	sbiw	r28, 0x01	; 1
    102c:	d8 f6       	brcc	.-74     	; 0xfe4 <spi_transfer+0x1a>
_delay_us(10); //Added by me
		
	}

	return rx;
}
    102e:	81 2f       	mov	r24, r17
    1030:	df 91       	pop	r29
    1032:	cf 91       	pop	r28
    1034:	1f 91       	pop	r17
    1036:	ff 90       	pop	r15
    1038:	ef 90       	pop	r14
    103a:	08 95       	ret

0000103c <nrf24_getStatus>:
	return 1; /* true */

}

uint8_t nrf24_getStatus()
{
    103c:	cf 93       	push	r28
	uint8_t rv;
	nrf24_csn_digitalWrite(LOW);
    103e:	80 e0       	ldi	r24, 0x00	; 0
    1040:	0e 94 bf 09 	call	0x137e	; 0x137e <nrf24_csn_digitalWrite>
	rv = spi_transfer(NOP);
    1044:	8f ef       	ldi	r24, 0xFF	; 255
    1046:	0e 94 e5 07 	call	0xfca	; 0xfca <spi_transfer>
    104a:	c8 2f       	mov	r28, r24
	nrf24_csn_digitalWrite(HIGH);
    104c:	81 e0       	ldi	r24, 0x01	; 1
    104e:	0e 94 bf 09 	call	0x137e	; 0x137e <nrf24_csn_digitalWrite>
	return rv;
}
    1052:	8c 2f       	mov	r24, r28
    1054:	cf 91       	pop	r28
    1056:	08 95       	ret

00001058 <nrf24_isSending>:
uint8_t nrf24_isSending()
{
	uint8_t status;

	/* read the current status */
	status = nrf24_getStatus();
    1058:	0e 94 1e 08 	call	0x103c	; 0x103c <nrf24_getStatus>
	
	/* if sending successful (TX_DS) or max retries exceded (MAX_RT). */
	if((status & ((1 << TX_DS)  | (1 << MAX_RT))))
    105c:	98 2f       	mov	r25, r24
    105e:	90 73       	andi	r25, 0x30	; 48
    1060:	81 e0       	ldi	r24, 0x01	; 1
    1062:	09 f0       	breq	.+2      	; 0x1066 <nrf24_isSending+0xe>
    1064:	80 e0       	ldi	r24, 0x00	; 0
		return 0; /* false */
	}

	return 1; /* true */

}
    1066:	08 95       	ret

00001068 <nrf24_lastMessageStatus>:

uint8_t nrf24_lastMessageStatus()
{
	uint8_t rv;

	rv = nrf24_getStatus();
    1068:	0e 94 1e 08 	call	0x103c	; 0x103c <nrf24_getStatus>

	/* Transmission went OK */
	if((rv & ((1 << TX_DS))))
    106c:	85 fd       	sbrc	r24, 5
    106e:	04 c0       	rjmp	.+8      	; 0x1078 <nrf24_lastMessageStatus+0x10>
	{
		return NRF24_TRANSMISSON_OK;
	}
	/* Maximum retransmission count is reached */
	/* Last message probably went missing ... */
	else if((rv & ((1 << MAX_RT))))
    1070:	84 fd       	sbrc	r24, 4
    1072:	04 c0       	rjmp	.+8      	; 0x107c <nrf24_lastMessageStatus+0x14>
		return NRF24_MESSAGE_LOST;
	}
	/* Probably still sending ... */
	else
	{
		return 0xFF;
    1074:	8f ef       	ldi	r24, 0xFF	; 255
    1076:	08 95       	ret
	rv = nrf24_getStatus();

	/* Transmission went OK */
	if((rv & ((1 << TX_DS))))
	{
		return NRF24_TRANSMISSON_OK;
    1078:	80 e0       	ldi	r24, 0x00	; 0
    107a:	08 95       	ret
	}
	/* Maximum retransmission count is reached */
	/* Last message probably went missing ... */
	else if((rv & ((1 << MAX_RT))))
	{
		return NRF24_MESSAGE_LOST;
    107c:	81 e0       	ldi	r24, 0x01	; 1
	/* Probably still sending ... */
	else
	{
		return 0xFF;
	}
}
    107e:	08 95       	ret

00001080 <nrf24_transferSync>:
	return rx;
}

/* send and receive multiple bytes over SPI */
void nrf24_transferSync(uint8_t* dataout,uint8_t* datain,uint8_t len)
{
    1080:	ef 92       	push	r14
    1082:	ff 92       	push	r15
    1084:	0f 93       	push	r16
    1086:	1f 93       	push	r17
    1088:	cf 93       	push	r28
    108a:	df 93       	push	r29
	uint8_t i;

	for(i=0;i<len;i++)
    108c:	44 23       	and	r20, r20
    108e:	a1 f0       	breq	.+40     	; 0x10b8 <nrf24_transferSync+0x38>
    1090:	ec 01       	movw	r28, r24
    1092:	06 2f       	mov	r16, r22
    1094:	17 2f       	mov	r17, r23
    1096:	41 50       	subi	r20, 0x01	; 1
    1098:	e4 2e       	mov	r14, r20
    109a:	f1 2c       	mov	r15, r1
    109c:	2f ef       	ldi	r18, 0xFF	; 255
    109e:	e2 1a       	sub	r14, r18
    10a0:	f2 0a       	sbc	r15, r18
    10a2:	e8 0e       	add	r14, r24
    10a4:	f9 1e       	adc	r15, r25
	{
		datain[i] = spi_transfer(dataout[i]);
    10a6:	89 91       	ld	r24, Y+
    10a8:	0e 94 e5 07 	call	0xfca	; 0xfca <spi_transfer>
    10ac:	f8 01       	movw	r30, r16
    10ae:	81 93       	st	Z+, r24
    10b0:	8f 01       	movw	r16, r30
/* send and receive multiple bytes over SPI */
void nrf24_transferSync(uint8_t* dataout,uint8_t* datain,uint8_t len)
{
	uint8_t i;

	for(i=0;i<len;i++)
    10b2:	ce 15       	cp	r28, r14
    10b4:	df 05       	cpc	r29, r15
    10b6:	b9 f7       	brne	.-18     	; 0x10a6 <nrf24_transferSync+0x26>
	{
		datain[i] = spi_transfer(dataout[i]);
	}

}
    10b8:	df 91       	pop	r29
    10ba:	cf 91       	pop	r28
    10bc:	1f 91       	pop	r17
    10be:	0f 91       	pop	r16
    10c0:	ff 90       	pop	r15
    10c2:	ef 90       	pop	r14
    10c4:	08 95       	ret

000010c6 <nrf24_transmitSync>:

/* send multiple bytes over SPI */
void nrf24_transmitSync(uint8_t* dataout,uint8_t len)
{
    10c6:	0f 93       	push	r16
    10c8:	1f 93       	push	r17
    10ca:	cf 93       	push	r28
    10cc:	df 93       	push	r29
	uint8_t i;
	
	for(i=0;i<len;i++)
    10ce:	66 23       	and	r22, r22
    10d0:	71 f0       	breq	.+28     	; 0x10ee <nrf24_transmitSync+0x28>
    10d2:	ec 01       	movw	r28, r24
    10d4:	61 50       	subi	r22, 0x01	; 1
    10d6:	06 2f       	mov	r16, r22
    10d8:	10 e0       	ldi	r17, 0x00	; 0
    10da:	0f 5f       	subi	r16, 0xFF	; 255
    10dc:	1f 4f       	sbci	r17, 0xFF	; 255
    10de:	08 0f       	add	r16, r24
    10e0:	19 1f       	adc	r17, r25
	{
		spi_transfer(dataout[i]);
    10e2:	89 91       	ld	r24, Y+
    10e4:	0e 94 e5 07 	call	0xfca	; 0xfca <spi_transfer>
/* send multiple bytes over SPI */
void nrf24_transmitSync(uint8_t* dataout,uint8_t len)
{
	uint8_t i;
	
	for(i=0;i<len;i++)
    10e8:	c0 17       	cp	r28, r16
    10ea:	d1 07       	cpc	r29, r17
    10ec:	d1 f7       	brne	.-12     	; 0x10e2 <nrf24_transmitSync+0x1c>
	{
		spi_transfer(dataout[i]);
	}

}
    10ee:	df 91       	pop	r29
    10f0:	cf 91       	pop	r28
    10f2:	1f 91       	pop	r17
    10f4:	0f 91       	pop	r16
    10f6:	08 95       	ret

000010f8 <nrf24_configRegister>:

/* Clocks only one byte into the given nrf24 register */
void nrf24_configRegister(uint8_t reg, uint8_t value)
{
    10f8:	cf 93       	push	r28
    10fa:	df 93       	push	r29
    10fc:	c8 2f       	mov	r28, r24
    10fe:	d6 2f       	mov	r29, r22
	nrf24_csn_digitalWrite(LOW);
    1100:	80 e0       	ldi	r24, 0x00	; 0
    1102:	0e 94 bf 09 	call	0x137e	; 0x137e <nrf24_csn_digitalWrite>
	spi_transfer(W_REGISTER | (REGISTER_MASK & reg));
    1106:	8c 2f       	mov	r24, r28
    1108:	8f 71       	andi	r24, 0x1F	; 31
    110a:	80 62       	ori	r24, 0x20	; 32
    110c:	0e 94 e5 07 	call	0xfca	; 0xfca <spi_transfer>
	spi_transfer(value);
    1110:	8d 2f       	mov	r24, r29
    1112:	0e 94 e5 07 	call	0xfca	; 0xfca <spi_transfer>
	nrf24_csn_digitalWrite(HIGH);
    1116:	81 e0       	ldi	r24, 0x01	; 1
    1118:	0e 94 bf 09 	call	0x137e	; 0x137e <nrf24_csn_digitalWrite>
}
    111c:	df 91       	pop	r29
    111e:	cf 91       	pop	r28
    1120:	08 95       	ret

00001122 <nrf24_getData>:
	return status;
}

/* Reads payload bytes into data array */
void nrf24_getData(uint8_t* data)
{
    1122:	cf 93       	push	r28
    1124:	df 93       	push	r29
    1126:	ec 01       	movw	r28, r24
	/* Pull down chip select */
	nrf24_csn_digitalWrite(LOW);
    1128:	80 e0       	ldi	r24, 0x00	; 0
    112a:	0e 94 bf 09 	call	0x137e	; 0x137e <nrf24_csn_digitalWrite>

	/* Send cmd to read rx payload */
	spi_transfer( R_RX_PAYLOAD );
    112e:	81 e6       	ldi	r24, 0x61	; 97
    1130:	0e 94 e5 07 	call	0xfca	; 0xfca <spi_transfer>
	
	/* Read payload */
	nrf24_transferSync(data,data,payload_len);
    1134:	40 91 f6 02 	lds	r20, 0x02F6
    1138:	be 01       	movw	r22, r28
    113a:	ce 01       	movw	r24, r28
    113c:	0e 94 40 08 	call	0x1080	; 0x1080 <nrf24_transferSync>
	
	/* Pull up chip select */
	nrf24_csn_digitalWrite(HIGH);
    1140:	81 e0       	ldi	r24, 0x01	; 1
    1142:	0e 94 bf 09 	call	0x137e	; 0x137e <nrf24_csn_digitalWrite>

	/* Reset status register */
	nrf24_configRegister(STATUS,(1<<RX_DR));
    1146:	60 e4       	ldi	r22, 0x40	; 64
    1148:	87 e0       	ldi	r24, 0x07	; 7
    114a:	0e 94 7c 08 	call	0x10f8	; 0x10f8 <nrf24_configRegister>
}
    114e:	df 91       	pop	r29
    1150:	cf 91       	pop	r28
    1152:	08 95       	ret

00001154 <nrf24_powerUpRx>:
	}
}

void nrf24_powerUpRx()
{
	nrf24_csn_digitalWrite(LOW);
    1154:	80 e0       	ldi	r24, 0x00	; 0
    1156:	0e 94 bf 09 	call	0x137e	; 0x137e <nrf24_csn_digitalWrite>
	spi_transfer(FLUSH_RX);
    115a:	82 ee       	ldi	r24, 0xE2	; 226
    115c:	0e 94 e5 07 	call	0xfca	; 0xfca <spi_transfer>
	nrf24_csn_digitalWrite(HIGH);
    1160:	81 e0       	ldi	r24, 0x01	; 1
    1162:	0e 94 bf 09 	call	0x137e	; 0x137e <nrf24_csn_digitalWrite>

	nrf24_configRegister(STATUS,(1<<RX_DR)|(1<<TX_DS)|(1<<MAX_RT));
    1166:	60 e7       	ldi	r22, 0x70	; 112
    1168:	87 e0       	ldi	r24, 0x07	; 7
    116a:	0e 94 7c 08 	call	0x10f8	; 0x10f8 <nrf24_configRegister>

	nrf24_ce_digitalWrite(LOW);
    116e:	80 e0       	ldi	r24, 0x00	; 0
    1170:	0e 94 b9 09 	call	0x1372	; 0x1372 <nrf24_ce_digitalWrite>
	nrf24_configRegister(CONFIG,nrf24_CONFIG|((1<<PWR_UP)|(1<<PRIM_RX)));
    1174:	6b e0       	ldi	r22, 0x0B	; 11
    1176:	80 e0       	ldi	r24, 0x00	; 0
    1178:	0e 94 7c 08 	call	0x10f8	; 0x10f8 <nrf24_configRegister>
	nrf24_ce_digitalWrite(HIGH);
    117c:	81 e0       	ldi	r24, 0x01	; 1
    117e:	0e 94 b9 09 	call	0x1372	; 0x1372 <nrf24_ce_digitalWrite>
    1182:	08 95       	ret

00001184 <nrf24_config>:

/* configure the module */
void nrf24_config(uint8_t channel, uint8_t pay_length)
{
	/* Use static payload length ... */
	payload_len = pay_length;
    1184:	60 93 f6 02 	sts	0x02F6, r22

	// Set RF channel
	nrf24_configRegister(RF_CH,channel);
    1188:	68 2f       	mov	r22, r24
    118a:	85 e0       	ldi	r24, 0x05	; 5
    118c:	0e 94 7c 08 	call	0x10f8	; 0x10f8 <nrf24_configRegister>

	// Set length of incoming payload
	nrf24_configRegister(RX_PW_P0, 0x00); // Auto-ACK pipe ...
    1190:	60 e0       	ldi	r22, 0x00	; 0
    1192:	81 e1       	ldi	r24, 0x11	; 17
    1194:	0e 94 7c 08 	call	0x10f8	; 0x10f8 <nrf24_configRegister>
	nrf24_configRegister(RX_PW_P1, payload_len); // Data payload pipe
    1198:	60 91 f6 02 	lds	r22, 0x02F6
    119c:	82 e1       	ldi	r24, 0x12	; 18
    119e:	0e 94 7c 08 	call	0x10f8	; 0x10f8 <nrf24_configRegister>
	nrf24_configRegister(RX_PW_P2, 0x00); // Pipe not used
    11a2:	60 e0       	ldi	r22, 0x00	; 0
    11a4:	83 e1       	ldi	r24, 0x13	; 19
    11a6:	0e 94 7c 08 	call	0x10f8	; 0x10f8 <nrf24_configRegister>
	nrf24_configRegister(RX_PW_P3, 0x00); // Pipe not used
    11aa:	60 e0       	ldi	r22, 0x00	; 0
    11ac:	84 e1       	ldi	r24, 0x14	; 20
    11ae:	0e 94 7c 08 	call	0x10f8	; 0x10f8 <nrf24_configRegister>
	nrf24_configRegister(RX_PW_P4, 0x00); // Pipe not used
    11b2:	60 e0       	ldi	r22, 0x00	; 0
    11b4:	85 e1       	ldi	r24, 0x15	; 21
    11b6:	0e 94 7c 08 	call	0x10f8	; 0x10f8 <nrf24_configRegister>
	nrf24_configRegister(RX_PW_P5, 0x00); // Pipe not used
    11ba:	60 e0       	ldi	r22, 0x00	; 0
    11bc:	86 e1       	ldi	r24, 0x16	; 22
    11be:	0e 94 7c 08 	call	0x10f8	; 0x10f8 <nrf24_configRegister>

	// 1 Mbps, TX gain: 0dbm
	//nrf24_configRegister(RF_SETUP, (0<<RF_DR)|((0x03)<<RF_PWR));

	// 250 kbps, TX gain: 0dbm
	nrf24_configRegister(RF_SETUP, (4<<RF_DR)|((0x03)<<RF_PWR));
    11c2:	66 e2       	ldi	r22, 0x26	; 38
    11c4:	86 e0       	ldi	r24, 0x06	; 6
    11c6:	0e 94 7c 08 	call	0x10f8	; 0x10f8 <nrf24_configRegister>

	// CRC enable, (old: 1) 2 byte CRC length
	nrf24_configRegister(CONFIG,nrf24_CONFIG | (1 << CRCO));
    11ca:	6c e0       	ldi	r22, 0x0C	; 12
    11cc:	80 e0       	ldi	r24, 0x00	; 0
    11ce:	0e 94 7c 08 	call	0x10f8	; 0x10f8 <nrf24_configRegister>

	// Auto Acknowledgment
	nrf24_configRegister(EN_AA,(1<<ENAA_P0)|(1<<ENAA_P1)|(0<<ENAA_P2)|(0<<ENAA_P3)|(0<<ENAA_P4)|(0<<ENAA_P5));
    11d2:	63 e0       	ldi	r22, 0x03	; 3
    11d4:	81 e0       	ldi	r24, 0x01	; 1
    11d6:	0e 94 7c 08 	call	0x10f8	; 0x10f8 <nrf24_configRegister>

	// Enable RX addresses
	nrf24_configRegister(EN_RXADDR,(1<<ERX_P0)|(1<<ERX_P1)|(0<<ERX_P2)|(0<<ERX_P3)|(0<<ERX_P4)|(0<<ERX_P5));
    11da:	63 e0       	ldi	r22, 0x03	; 3
    11dc:	82 e0       	ldi	r24, 0x02	; 2
    11de:	0e 94 7c 08 	call	0x10f8	; 0x10f8 <nrf24_configRegister>

	// Auto retransmit delay: 1000 us and Up to 15 retransmit trials
	nrf24_configRegister(SETUP_RETR,(0x04<<ARD)|(0x0F<<ARC));
    11e2:	6f e4       	ldi	r22, 0x4F	; 79
    11e4:	84 e0       	ldi	r24, 0x04	; 4
    11e6:	0e 94 7c 08 	call	0x10f8	; 0x10f8 <nrf24_configRegister>

	// Dynamic length configurations: No dynamic length
	nrf24_configRegister(DYNPD,(0<<DPL_P0)|(0<<DPL_P1)|(0<<DPL_P2)|(0<<DPL_P3)|(0<<DPL_P4)|(0<<DPL_P5));
    11ea:	60 e0       	ldi	r22, 0x00	; 0
    11ec:	8c e1       	ldi	r24, 0x1C	; 28
    11ee:	0e 94 7c 08 	call	0x10f8	; 0x10f8 <nrf24_configRegister>

	// Start listening
	nrf24_powerUpRx();
    11f2:	0e 94 aa 08 	call	0x1154	; 0x1154 <nrf24_powerUpRx>
    11f6:	08 95       	ret

000011f8 <nrf24_powerUpTx>:
	nrf24_ce_digitalWrite(HIGH);
}

void nrf24_powerUpTx()
{
	nrf24_configRegister(STATUS,(1<<RX_DR)|(1<<TX_DS)|(1<<MAX_RT));
    11f8:	60 e7       	ldi	r22, 0x70	; 112
    11fa:	87 e0       	ldi	r24, 0x07	; 7
    11fc:	0e 94 7c 08 	call	0x10f8	; 0x10f8 <nrf24_configRegister>

	nrf24_configRegister(CONFIG,nrf24_CONFIG|((1<<PWR_UP)|(0<<PRIM_RX)));
    1200:	6a e0       	ldi	r22, 0x0A	; 10
    1202:	80 e0       	ldi	r24, 0x00	; 0
    1204:	0e 94 7c 08 	call	0x10f8	; 0x10f8 <nrf24_configRegister>
    1208:	08 95       	ret

0000120a <nrf24_send>:
}

// Sends a data package to the default address. Be sure to send the correct
// amount of bytes as configured as payload on the receiver.
void nrf24_send(uint8_t* value)
{
    120a:	cf 93       	push	r28
    120c:	df 93       	push	r29
    120e:	ec 01       	movw	r28, r24
	/* Go to Standby-I first */
	nrf24_ce_digitalWrite(LOW);
    1210:	80 e0       	ldi	r24, 0x00	; 0
    1212:	0e 94 b9 09 	call	0x1372	; 0x1372 <nrf24_ce_digitalWrite>
	
	/* Set to transmitter mode , Power up if needed */
	nrf24_powerUpTx();
    1216:	0e 94 fc 08 	call	0x11f8	; 0x11f8 <nrf24_powerUpTx>

	/* Do we really need to flush TX fifo each time ? */
	#if 1
	/* Pull down chip select */
	nrf24_csn_digitalWrite(LOW);
    121a:	80 e0       	ldi	r24, 0x00	; 0
    121c:	0e 94 bf 09 	call	0x137e	; 0x137e <nrf24_csn_digitalWrite>

	/* Write cmd to flush transmit FIFO */
	spi_transfer(FLUSH_TX);
    1220:	81 ee       	ldi	r24, 0xE1	; 225
    1222:	0e 94 e5 07 	call	0xfca	; 0xfca <spi_transfer>

	/* Pull up chip select */
	nrf24_csn_digitalWrite(HIGH);
    1226:	81 e0       	ldi	r24, 0x01	; 1
    1228:	0e 94 bf 09 	call	0x137e	; 0x137e <nrf24_csn_digitalWrite>
	#endif

	/* Pull down chip select */
	nrf24_csn_digitalWrite(LOW);
    122c:	80 e0       	ldi	r24, 0x00	; 0
    122e:	0e 94 bf 09 	call	0x137e	; 0x137e <nrf24_csn_digitalWrite>

	/* Write cmd to write payload */
	spi_transfer(W_TX_PAYLOAD);
    1232:	80 ea       	ldi	r24, 0xA0	; 160
    1234:	0e 94 e5 07 	call	0xfca	; 0xfca <spi_transfer>

	/* Write payload */
	nrf24_transmitSync(value,payload_len);
    1238:	60 91 f6 02 	lds	r22, 0x02F6
    123c:	ce 01       	movw	r24, r28
    123e:	0e 94 63 08 	call	0x10c6	; 0x10c6 <nrf24_transmitSync>

	/* Pull up chip select */
	nrf24_csn_digitalWrite(HIGH);
    1242:	81 e0       	ldi	r24, 0x01	; 1
    1244:	0e 94 bf 09 	call	0x137e	; 0x137e <nrf24_csn_digitalWrite>

	/* Start the transmission */
	nrf24_ce_digitalWrite(HIGH);
    1248:	81 e0       	ldi	r24, 0x01	; 1
    124a:	0e 94 b9 09 	call	0x1372	; 0x1372 <nrf24_ce_digitalWrite>
}
    124e:	df 91       	pop	r29
    1250:	cf 91       	pop	r28
    1252:	08 95       	ret

00001254 <nrf24_readRegister>:
	nrf24_csn_digitalWrite(HIGH);
}

/* Read single register from nrf24 */
void nrf24_readRegister(uint8_t reg, uint8_t* value, uint8_t len)
{
    1254:	0f 93       	push	r16
    1256:	1f 93       	push	r17
    1258:	cf 93       	push	r28
    125a:	df 93       	push	r29
    125c:	08 2f       	mov	r16, r24
    125e:	eb 01       	movw	r28, r22
    1260:	14 2f       	mov	r17, r20
	nrf24_csn_digitalWrite(LOW);
    1262:	80 e0       	ldi	r24, 0x00	; 0
    1264:	0e 94 bf 09 	call	0x137e	; 0x137e <nrf24_csn_digitalWrite>
	spi_transfer(R_REGISTER | (REGISTER_MASK & reg));
    1268:	80 2f       	mov	r24, r16
    126a:	8f 71       	andi	r24, 0x1F	; 31
    126c:	0e 94 e5 07 	call	0xfca	; 0xfca <spi_transfer>
	nrf24_transferSync(value,value,len);
    1270:	41 2f       	mov	r20, r17
    1272:	be 01       	movw	r22, r28
    1274:	ce 01       	movw	r24, r28
    1276:	0e 94 40 08 	call	0x1080	; 0x1080 <nrf24_transferSync>
	nrf24_csn_digitalWrite(HIGH);
    127a:	81 e0       	ldi	r24, 0x01	; 1
    127c:	0e 94 bf 09 	call	0x137e	; 0x137e <nrf24_csn_digitalWrite>
}
    1280:	df 91       	pop	r29
    1282:	cf 91       	pop	r28
    1284:	1f 91       	pop	r17
    1286:	0f 91       	pop	r16
    1288:	08 95       	ret

0000128a <nrf24_rxFifoEmpty>:
	return !nrf24_rxFifoEmpty();;
}

/* Checks if receive FIFO is empty or not */
uint8_t nrf24_rxFifoEmpty()
{
    128a:	cf 93       	push	r28
    128c:	df 93       	push	r29
    128e:	1f 92       	push	r1
    1290:	cd b7       	in	r28, 0x3d	; 61
    1292:	de b7       	in	r29, 0x3e	; 62
	uint8_t fifoStatus;

	nrf24_readRegister(FIFO_STATUS,&fifoStatus,1);
    1294:	41 e0       	ldi	r20, 0x01	; 1
    1296:	be 01       	movw	r22, r28
    1298:	6f 5f       	subi	r22, 0xFF	; 255
    129a:	7f 4f       	sbci	r23, 0xFF	; 255
    129c:	87 e1       	ldi	r24, 0x17	; 23
    129e:	0e 94 2a 09 	call	0x1254	; 0x1254 <nrf24_readRegister>
	
	return (fifoStatus & (1 << RX_EMPTY));
    12a2:	89 81       	ldd	r24, Y+1	; 0x01
}
    12a4:	81 70       	andi	r24, 0x01	; 1
    12a6:	0f 90       	pop	r0
    12a8:	df 91       	pop	r29
    12aa:	cf 91       	pop	r28
    12ac:	08 95       	ret

000012ae <nrf24_dataReady>:
/* Checks if data is available for reading */
/* Returns 1 if data is ready ... */
uint8_t nrf24_dataReady()
{
	// See note in getData() function - just checking RX_DR isn't good enough
	uint8_t status = nrf24_getStatus();
    12ae:	0e 94 1e 08 	call	0x103c	; 0x103c <nrf24_getStatus>

	// We can short circuit on RX_DR, but if it's not set, we still need
	// to check the FIFO for any pending packets
	if ( status & (1 << RX_DR) )
    12b2:	86 fd       	sbrc	r24, 6
    12b4:	07 c0       	rjmp	.+14     	; 0x12c4 <nrf24_dataReady+0x16>
	{
		return 1;
	}

	return !nrf24_rxFifoEmpty();;
    12b6:	0e 94 45 09 	call	0x128a	; 0x128a <nrf24_rxFifoEmpty>
    12ba:	91 e0       	ldi	r25, 0x01	; 1
    12bc:	88 23       	and	r24, r24
    12be:	19 f0       	breq	.+6      	; 0x12c6 <nrf24_dataReady+0x18>
    12c0:	90 e0       	ldi	r25, 0x00	; 0
    12c2:	01 c0       	rjmp	.+2      	; 0x12c6 <nrf24_dataReady+0x18>

	// We can short circuit on RX_DR, but if it's not set, we still need
	// to check the FIFO for any pending packets
	if ( status & (1 << RX_DR) )
	{
		return 1;
    12c4:	91 e0       	ldi	r25, 0x01	; 1
	}

	return !nrf24_rxFifoEmpty();;
}
    12c6:	89 2f       	mov	r24, r25
    12c8:	08 95       	ret

000012ca <nrf24_retransmissionCount>:
	nrf24_configRegister(STATUS,(1<<RX_DR));
}

/* Returns the number of retransmissions occured for the last message */
uint8_t nrf24_retransmissionCount()
{
    12ca:	cf 93       	push	r28
    12cc:	df 93       	push	r29
    12ce:	1f 92       	push	r1
    12d0:	cd b7       	in	r28, 0x3d	; 61
    12d2:	de b7       	in	r29, 0x3e	; 62
	uint8_t rv;
	nrf24_readRegister(OBSERVE_TX,&rv,1);
    12d4:	41 e0       	ldi	r20, 0x01	; 1
    12d6:	be 01       	movw	r22, r28
    12d8:	6f 5f       	subi	r22, 0xFF	; 255
    12da:	7f 4f       	sbci	r23, 0xFF	; 255
    12dc:	88 e0       	ldi	r24, 0x08	; 8
    12de:	0e 94 2a 09 	call	0x1254	; 0x1254 <nrf24_readRegister>
	rv = rv & 0x0F;
    12e2:	89 81       	ldd	r24, Y+1	; 0x01
	return rv;
}
    12e4:	8f 70       	andi	r24, 0x0F	; 15
    12e6:	0f 90       	pop	r0
    12e8:	df 91       	pop	r29
    12ea:	cf 91       	pop	r28
    12ec:	08 95       	ret

000012ee <nrf24_writeRegister>:
	nrf24_csn_digitalWrite(HIGH);
}

/* Write to a single register of nrf24 */
void nrf24_writeRegister(uint8_t reg, uint8_t* value, uint8_t len)
{
    12ee:	0f 93       	push	r16
    12f0:	1f 93       	push	r17
    12f2:	cf 93       	push	r28
    12f4:	df 93       	push	r29
    12f6:	c8 2f       	mov	r28, r24
    12f8:	8b 01       	movw	r16, r22
    12fa:	d4 2f       	mov	r29, r20
	nrf24_csn_digitalWrite(LOW);
    12fc:	80 e0       	ldi	r24, 0x00	; 0
    12fe:	0e 94 bf 09 	call	0x137e	; 0x137e <nrf24_csn_digitalWrite>
	spi_transfer(W_REGISTER | (REGISTER_MASK & reg));
    1302:	8c 2f       	mov	r24, r28
    1304:	8f 71       	andi	r24, 0x1F	; 31
    1306:	80 62       	ori	r24, 0x20	; 32
    1308:	0e 94 e5 07 	call	0xfca	; 0xfca <spi_transfer>
	nrf24_transmitSync(value,len);
    130c:	6d 2f       	mov	r22, r29
    130e:	c8 01       	movw	r24, r16
    1310:	0e 94 63 08 	call	0x10c6	; 0x10c6 <nrf24_transmitSync>
	nrf24_csn_digitalWrite(HIGH);
    1314:	81 e0       	ldi	r24, 0x01	; 1
    1316:	0e 94 bf 09 	call	0x137e	; 0x137e <nrf24_csn_digitalWrite>
    131a:	df 91       	pop	r29
    131c:	cf 91       	pop	r28
    131e:	1f 91       	pop	r17
    1320:	0f 91       	pop	r16
    1322:	08 95       	ret

00001324 <nrf24_rx_address>:
	nrf24_powerUpRx();
}

/* Set the RX address */
void nrf24_rx_address(uint8_t * adr)
{
    1324:	cf 93       	push	r28
    1326:	df 93       	push	r29
    1328:	ec 01       	movw	r28, r24
	nrf24_ce_digitalWrite(LOW);
    132a:	80 e0       	ldi	r24, 0x00	; 0
    132c:	0e 94 b9 09 	call	0x1372	; 0x1372 <nrf24_ce_digitalWrite>
	nrf24_writeRegister(RX_ADDR_P1,adr,nrf24_ADDR_LEN);
    1330:	45 e0       	ldi	r20, 0x05	; 5
    1332:	be 01       	movw	r22, r28
    1334:	8b e0       	ldi	r24, 0x0B	; 11
    1336:	0e 94 77 09 	call	0x12ee	; 0x12ee <nrf24_writeRegister>
	nrf24_ce_digitalWrite(HIGH);
    133a:	81 e0       	ldi	r24, 0x01	; 1
    133c:	0e 94 b9 09 	call	0x1372	; 0x1372 <nrf24_ce_digitalWrite>
}
    1340:	df 91       	pop	r29
    1342:	cf 91       	pop	r28
    1344:	08 95       	ret

00001346 <nrf24_tx_address>:
	return payload_len;
}

/* Set the TX address */
void nrf24_tx_address(uint8_t* adr)
{
    1346:	cf 93       	push	r28
    1348:	df 93       	push	r29
    134a:	ec 01       	movw	r28, r24
	/* RX_ADDR_P0 must be set to the sending addr for auto ack to work. */
	nrf24_writeRegister(RX_ADDR_P0,adr,nrf24_ADDR_LEN);
    134c:	45 e0       	ldi	r20, 0x05	; 5
    134e:	bc 01       	movw	r22, r24
    1350:	8a e0       	ldi	r24, 0x0A	; 10
    1352:	0e 94 77 09 	call	0x12ee	; 0x12ee <nrf24_writeRegister>
	nrf24_writeRegister(TX_ADDR,adr,nrf24_ADDR_LEN);
    1356:	45 e0       	ldi	r20, 0x05	; 5
    1358:	be 01       	movw	r22, r28
    135a:	80 e1       	ldi	r24, 0x10	; 16
    135c:	0e 94 77 09 	call	0x12ee	; 0x12ee <nrf24_writeRegister>
}
    1360:	df 91       	pop	r29
    1362:	cf 91       	pop	r28
    1364:	08 95       	ret

00001366 <nrf24_setupPins>:
#define check_bit(reg,bit) (reg&(1<<bit))

/* ------------------------------------------------------------------------- */
void nrf24_setupPins()
{
	set_bit(DDRE,6); // CE output
    1366:	6e 9a       	sbi	0x0d, 6	; 13
	set_bit(DDRB,0); // CSN output
    1368:	20 9a       	sbi	0x04, 0	; 4
	set_bit(DDRB,1); // SCK output
    136a:	21 9a       	sbi	0x04, 1	; 4
	set_bit(DDRB,2); // MOSI output
    136c:	22 9a       	sbi	0x04, 2	; 4
	clr_bit(DDRB,3); // MISO input
    136e:	23 98       	cbi	0x04, 3	; 4
    1370:	08 95       	ret

00001372 <nrf24_ce_digitalWrite>:
	
}
/* ------------------------------------------------------------------------- */
void nrf24_ce_digitalWrite(uint8_t state)
{
	if(state)
    1372:	88 23       	and	r24, r24
    1374:	11 f0       	breq	.+4      	; 0x137a <nrf24_ce_digitalWrite+0x8>
	{
		set_bit(PORTE,6);
    1376:	76 9a       	sbi	0x0e, 6	; 14
    1378:	08 95       	ret
	}
	else
	{
		clr_bit(PORTE,6);
    137a:	76 98       	cbi	0x0e, 6	; 14
    137c:	08 95       	ret

0000137e <nrf24_csn_digitalWrite>:
	}
}
/* ------------------------------------------------------------------------- */
void nrf24_csn_digitalWrite(uint8_t state)
{
	if(state)
    137e:	88 23       	and	r24, r24
    1380:	11 f0       	breq	.+4      	; 0x1386 <nrf24_csn_digitalWrite+0x8>
	{
		set_bit(PORTB,0);
    1382:	28 9a       	sbi	0x05, 0	; 5
    1384:	08 95       	ret
	}
	else
	{
		clr_bit(PORTB,0);
    1386:	28 98       	cbi	0x05, 0	; 5
    1388:	08 95       	ret

0000138a <nrf24_sck_digitalWrite>:
	}
}
/* ------------------------------------------------------------------------- */
void nrf24_sck_digitalWrite(uint8_t state)
{
	if(state)
    138a:	88 23       	and	r24, r24
    138c:	11 f0       	breq	.+4      	; 0x1392 <nrf24_sck_digitalWrite+0x8>
	{
		set_bit(PORTB,1);
    138e:	29 9a       	sbi	0x05, 1	; 5
    1390:	08 95       	ret
	}
	else
	{
		clr_bit(PORTB,1);
    1392:	29 98       	cbi	0x05, 1	; 5
    1394:	08 95       	ret

00001396 <nrf24_mosi_digitalWrite>:
	}
}
/* ------------------------------------------------------------------------- */
void nrf24_mosi_digitalWrite(uint8_t state)
{
	if(state)
    1396:	88 23       	and	r24, r24
    1398:	11 f0       	breq	.+4      	; 0x139e <nrf24_mosi_digitalWrite+0x8>
	{
		set_bit(PORTB,2);
    139a:	2a 9a       	sbi	0x05, 2	; 5
    139c:	08 95       	ret
	}
	else
	{
		clr_bit(PORTB,2);
    139e:	2a 98       	cbi	0x05, 2	; 5
    13a0:	08 95       	ret

000013a2 <nrf24_miso_digitalRead>:
	}
}
/* ------------------------------------------------------------------------- */
uint8_t nrf24_miso_digitalRead()
{
	return check_bit(PINB,3);
    13a2:	83 b1       	in	r24, 0x03	; 3
}
    13a4:	88 70       	andi	r24, 0x08	; 8
    13a6:	08 95       	ret

000013a8 <usb_init>:
 **************************************************************************/

// initialize USB serial
void usb_init(void)
{
	HW_CONFIG();
    13a8:	81 e0       	ldi	r24, 0x01	; 1
    13aa:	80 93 d7 00 	sts	0x00D7, r24
        USB_FREEZE();				// enable USB
    13ae:	80 ea       	ldi	r24, 0xA0	; 160
    13b0:	80 93 d8 00 	sts	0x00D8, r24
        PLL_CONFIG();				// config PLL, 16 MHz xtal
    13b4:	82 e1       	ldi	r24, 0x12	; 18
    13b6:	89 bd       	out	0x29, r24	; 41
        while (!(PLLCSR & (1<<PLOCK))) ;	// wait for PLL lock
    13b8:	09 b4       	in	r0, 0x29	; 41
    13ba:	00 fe       	sbrs	r0, 0
    13bc:	fd cf       	rjmp	.-6      	; 0x13b8 <usb_init+0x10>
        USB_CONFIG();				// start USB clock
    13be:	80 e9       	ldi	r24, 0x90	; 144
    13c0:	80 93 d8 00 	sts	0x00D8, r24
        UDCON = 0;				// enable attach resistor
    13c4:	10 92 e0 00 	sts	0x00E0, r1
	usb_configuration = 0;
    13c8:	10 92 8b 02 	sts	0x028B, r1
	cdc_line_rtsdtr = 0;
    13cc:	10 92 88 02 	sts	0x0288, r1
        UDIEN = (1<<EORSTE)|(1<<SOFE);
    13d0:	8c e0       	ldi	r24, 0x0C	; 12
    13d2:	80 93 e2 00 	sts	0x00E2, r24
	sei();
    13d6:	78 94       	sei
    13d8:	08 95       	ret

000013da <usb_serial_getchar>:
	uint8_t c, intr_state;

	// interrupts are disabled so these functions can be
	// used from the main program or interrupt context,
	// even both in the same program!
	intr_state = SREG;
    13da:	2f b7       	in	r18, 0x3f	; 63
	cli();
    13dc:	f8 94       	cli
	if (!usb_configuration) {
    13de:	80 91 8b 02 	lds	r24, 0x028B
    13e2:	81 11       	cpse	r24, r1
    13e4:	04 c0       	rjmp	.+8      	; 0x13ee <usb_serial_getchar+0x14>
		SREG = intr_state;
    13e6:	2f bf       	out	0x3f, r18	; 63
		return -1;
    13e8:	8f ef       	ldi	r24, 0xFF	; 255
    13ea:	9f ef       	ldi	r25, 0xFF	; 255
    13ec:	08 95       	ret
	}
	UENUM = CDC_RX_ENDPOINT;
    13ee:	83 e0       	ldi	r24, 0x03	; 3
    13f0:	80 93 e9 00 	sts	0x00E9, r24
	retry:
	c = UEINTX;
    13f4:	80 91 e8 00 	lds	r24, 0x00E8
	if (!(c & (1<<RWAL))) {
    13f8:	85 fd       	sbrc	r24, 5
    13fa:	12 c0       	rjmp	.+36     	; 0x1420 <usb_serial_getchar+0x46>
		// no data in buffer
		if (c & (1<<RXOUTI)) {
    13fc:	82 fd       	sbrc	r24, 2
    13fe:	04 c0       	rjmp	.+8      	; 0x1408 <usb_serial_getchar+0x2e>
    1400:	0b c0       	rjmp	.+22     	; 0x1418 <usb_serial_getchar+0x3e>
    1402:	82 fd       	sbrc	r24, 2
    1404:	04 c0       	rjmp	.+8      	; 0x140e <usb_serial_getchar+0x34>
    1406:	08 c0       	rjmp	.+16     	; 0x1418 <usb_serial_getchar+0x3e>
			UEINTX = 0x6B;
    1408:	e8 ee       	ldi	r30, 0xE8	; 232
    140a:	f0 e0       	ldi	r31, 0x00	; 0
    140c:	9b e6       	ldi	r25, 0x6B	; 107
    140e:	90 83       	st	Z, r25
		SREG = intr_state;
		return -1;
	}
	UENUM = CDC_RX_ENDPOINT;
	retry:
	c = UEINTX;
    1410:	80 81       	ld	r24, Z
	if (!(c & (1<<RWAL))) {
    1412:	85 ff       	sbrs	r24, 5
    1414:	f6 cf       	rjmp	.-20     	; 0x1402 <usb_serial_getchar+0x28>
    1416:	04 c0       	rjmp	.+8      	; 0x1420 <usb_serial_getchar+0x46>
		// no data in buffer
		if (c & (1<<RXOUTI)) {
			UEINTX = 0x6B;
			goto retry;
		}	
		SREG = intr_state;
    1418:	2f bf       	out	0x3f, r18	; 63
		return -1;
    141a:	8f ef       	ldi	r24, 0xFF	; 255
    141c:	9f ef       	ldi	r25, 0xFF	; 255
    141e:	08 95       	ret
	}
	// take one byte out of the buffer
	c = UEDATX;
    1420:	80 91 f1 00 	lds	r24, 0x00F1
	// if buffer completely used, release it
	if (!(UEINTX & (1<<RWAL))) UEINTX = 0x6B;
    1424:	90 91 e8 00 	lds	r25, 0x00E8
    1428:	95 fd       	sbrc	r25, 5
    142a:	03 c0       	rjmp	.+6      	; 0x1432 <usb_serial_getchar+0x58>
    142c:	9b e6       	ldi	r25, 0x6B	; 107
    142e:	90 93 e8 00 	sts	0x00E8, r25
	SREG = intr_state;
    1432:	2f bf       	out	0x3f, r18	; 63
	return c;
    1434:	90 e0       	ldi	r25, 0x00	; 0
}
    1436:	08 95       	ret

00001438 <usb_serial_available>:
// number of bytes available in the receive buffer
uint8_t usb_serial_available(void)
{
	uint8_t n=0, i, intr_state;

	intr_state = SREG;
    1438:	9f b7       	in	r25, 0x3f	; 63
	cli();
    143a:	f8 94       	cli
	if (usb_configuration) {
    143c:	80 91 8b 02 	lds	r24, 0x028B
    1440:	88 23       	and	r24, r24
    1442:	89 f0       	breq	.+34     	; 0x1466 <usb_serial_available+0x2e>
		UENUM = CDC_RX_ENDPOINT;
    1444:	83 e0       	ldi	r24, 0x03	; 3
    1446:	80 93 e9 00 	sts	0x00E9, r24
		n = UEBCLX;
    144a:	80 91 f2 00 	lds	r24, 0x00F2
		if (!n) {
    144e:	81 11       	cpse	r24, r1
    1450:	0b c0       	rjmp	.+22     	; 0x1468 <usb_serial_available+0x30>
			i = UEINTX;
    1452:	20 91 e8 00 	lds	r18, 0x00E8
			if (i & (1<<RXOUTI) && !(i & (1<<RWAL))) UEINTX = 0x6B;
    1456:	22 ff       	sbrs	r18, 2
    1458:	07 c0       	rjmp	.+14     	; 0x1468 <usb_serial_available+0x30>
    145a:	25 fd       	sbrc	r18, 5
    145c:	05 c0       	rjmp	.+10     	; 0x1468 <usb_serial_available+0x30>
    145e:	2b e6       	ldi	r18, 0x6B	; 107
    1460:	20 93 e8 00 	sts	0x00E8, r18
    1464:	01 c0       	rjmp	.+2      	; 0x1468 <usb_serial_available+0x30>
}

// number of bytes available in the receive buffer
uint8_t usb_serial_available(void)
{
	uint8_t n=0, i, intr_state;
    1466:	80 e0       	ldi	r24, 0x00	; 0
		if (!n) {
			i = UEINTX;
			if (i & (1<<RXOUTI) && !(i & (1<<RWAL))) UEINTX = 0x6B;
		}
	}
	SREG = intr_state;
    1468:	9f bf       	out	0x3f, r25	; 63
	return n;
}
    146a:	08 95       	ret

0000146c <usb_serial_putchar>:
	}
}

// transmit a character.  0 returned on success, -1 on error
int8_t usb_serial_putchar(uint8_t c)
{
    146c:	cf 93       	push	r28
    146e:	df 93       	push	r29
	uint8_t timeout, intr_state;

	// if we're not online (enumerated and configured), error
	if (!usb_configuration) return -1;
    1470:	90 91 8b 02 	lds	r25, 0x028B
    1474:	99 23       	and	r25, r25
    1476:	09 f4       	brne	.+2      	; 0x147a <usb_serial_putchar+0xe>
    1478:	4c c0       	rjmp	.+152    	; 0x1512 <usb_serial_putchar+0xa6>
	// interrupts are disabled so these functions can be
	// used from the main program or interrupt context,
	// even both in the same program!
	intr_state = SREG;
    147a:	9f b7       	in	r25, 0x3f	; 63
	cli();
    147c:	f8 94       	cli
	UENUM = CDC_TX_ENDPOINT;
    147e:	24 e0       	ldi	r18, 0x04	; 4
    1480:	20 93 e9 00 	sts	0x00E9, r18
	// if we gave up due to timeout before, don't wait again
	if (transmit_previous_timeout) {
    1484:	20 91 89 02 	lds	r18, 0x0289
    1488:	22 23       	and	r18, r18
    148a:	49 f0       	breq	.+18     	; 0x149e <usb_serial_putchar+0x32>
		if (!(UEINTX & (1<<RWAL))) {
    148c:	20 91 e8 00 	lds	r18, 0x00E8
    1490:	25 fd       	sbrc	r18, 5
    1492:	03 c0       	rjmp	.+6      	; 0x149a <usb_serial_putchar+0x2e>
			SREG = intr_state;
    1494:	9f bf       	out	0x3f, r25	; 63
			
			return -1;
    1496:	8f ef       	ldi	r24, 0xFF	; 255
    1498:	41 c0       	rjmp	.+130    	; 0x151c <usb_serial_putchar+0xb0>
		}
		transmit_previous_timeout = 0;
    149a:	10 92 89 02 	sts	0x0289, r1
	}
	// wait for the FIFO to be ready to accept data
	timeout = UDFNUML + TRANSMIT_TIMEOUT;
    149e:	30 91 e4 00 	lds	r19, 0x00E4
    14a2:	37 5e       	subi	r19, 0xE7	; 231
	while (1) {
		// are we ready to transmit?
		if (UEINTX & (1<<RWAL)) break;
    14a4:	20 91 e8 00 	lds	r18, 0x00E8
    14a8:	25 fd       	sbrc	r18, 5
    14aa:	24 c0       	rjmp	.+72     	; 0x14f4 <usb_serial_putchar+0x88>
		SREG = intr_state;
    14ac:	9f bf       	out	0x3f, r25	; 63
		// have we waited too long?  This happens if the user
		// is not running an application that is listening
		if (UDFNUML == timeout) {
    14ae:	90 91 e4 00 	lds	r25, 0x00E4
    14b2:	93 17       	cp	r25, r19
    14b4:	81 f0       	breq	.+32     	; 0x14d6 <usb_serial_putchar+0x6a>
			transmit_previous_timeout = 1;
			return -1;
		}
		// has the USB gone offline?
		if (!usb_configuration) return -1;
    14b6:	90 91 8b 02 	lds	r25, 0x028B
    14ba:	99 23       	and	r25, r25
    14bc:	61 f1       	breq	.+88     	; 0x1516 <usb_serial_putchar+0xaa>
		// get ready to try checking again
		intr_state = SREG;
		cli();
		UENUM = CDC_TX_ENDPOINT;
    14be:	a9 ee       	ldi	r26, 0xE9	; 233
    14c0:	b0 e0       	ldi	r27, 0x00	; 0
    14c2:	44 e0       	ldi	r20, 0x04	; 4
	}
	// wait for the FIFO to be ready to accept data
	timeout = UDFNUML + TRANSMIT_TIMEOUT;
	while (1) {
		// are we ready to transmit?
		if (UEINTX & (1<<RWAL)) break;
    14c4:	e8 ee       	ldi	r30, 0xE8	; 232
    14c6:	f0 e0       	ldi	r31, 0x00	; 0
		SREG = intr_state;
		// have we waited too long?  This happens if the user
		// is not running an application that is listening
		if (UDFNUML == timeout) {
    14c8:	c4 ee       	ldi	r28, 0xE4	; 228
    14ca:	d0 e0       	ldi	r29, 0x00	; 0
    14cc:	0d c0       	rjmp	.+26     	; 0x14e8 <usb_serial_putchar+0x7c>
	// wait for the FIFO to be ready to accept data
	timeout = UDFNUML + TRANSMIT_TIMEOUT;
	while (1) {
		// are we ready to transmit?
		if (UEINTX & (1<<RWAL)) break;
		SREG = intr_state;
    14ce:	9f bf       	out	0x3f, r25	; 63
		// have we waited too long?  This happens if the user
		// is not running an application that is listening
		if (UDFNUML == timeout) {
    14d0:	98 81       	ld	r25, Y
    14d2:	93 13       	cpse	r25, r19
    14d4:	05 c0       	rjmp	.+10     	; 0x14e0 <usb_serial_putchar+0x74>
			transmit_previous_timeout = 1;
    14d6:	81 e0       	ldi	r24, 0x01	; 1
    14d8:	80 93 89 02 	sts	0x0289, r24
			return -1;
    14dc:	8f ef       	ldi	r24, 0xFF	; 255
    14de:	1e c0       	rjmp	.+60     	; 0x151c <usb_serial_putchar+0xb0>
		}
		// has the USB gone offline?
		if (!usb_configuration) return -1;
    14e0:	90 91 8b 02 	lds	r25, 0x028B
    14e4:	99 23       	and	r25, r25
    14e6:	c9 f0       	breq	.+50     	; 0x151a <usb_serial_putchar+0xae>
		// get ready to try checking again
		intr_state = SREG;
    14e8:	9f b7       	in	r25, 0x3f	; 63
		cli();
    14ea:	f8 94       	cli
		UENUM = CDC_TX_ENDPOINT;
    14ec:	4c 93       	st	X, r20
	}
	// wait for the FIFO to be ready to accept data
	timeout = UDFNUML + TRANSMIT_TIMEOUT;
	while (1) {
		// are we ready to transmit?
		if (UEINTX & (1<<RWAL)) break;
    14ee:	20 81       	ld	r18, Z
    14f0:	25 ff       	sbrs	r18, 5
    14f2:	ed cf       	rjmp	.-38     	; 0x14ce <usb_serial_putchar+0x62>
		intr_state = SREG;
		cli();
		UENUM = CDC_TX_ENDPOINT;
	}
	// actually write the byte into the FIFO
	UEDATX = c;
    14f4:	80 93 f1 00 	sts	0x00F1, r24
	// if this completed a packet, transmit it now!
	if (!(UEINTX & (1<<RWAL))) UEINTX = 0x3A;
    14f8:	80 91 e8 00 	lds	r24, 0x00E8
    14fc:	85 fd       	sbrc	r24, 5
    14fe:	03 c0       	rjmp	.+6      	; 0x1506 <usb_serial_putchar+0x9a>
    1500:	8a e3       	ldi	r24, 0x3A	; 58
    1502:	80 93 e8 00 	sts	0x00E8, r24
	transmit_flush_timer = TRANSMIT_FLUSH_TIMEOUT;
    1506:	85 e0       	ldi	r24, 0x05	; 5
    1508:	80 93 8a 02 	sts	0x028A, r24
	SREG = intr_state;
    150c:	9f bf       	out	0x3f, r25	; 63
	return 0;
    150e:	80 e0       	ldi	r24, 0x00	; 0
    1510:	05 c0       	rjmp	.+10     	; 0x151c <usb_serial_putchar+0xb0>
int8_t usb_serial_putchar(uint8_t c)
{
	uint8_t timeout, intr_state;

	// if we're not online (enumerated and configured), error
	if (!usb_configuration) return -1;
    1512:	8f ef       	ldi	r24, 0xFF	; 255
    1514:	03 c0       	rjmp	.+6      	; 0x151c <usb_serial_putchar+0xb0>
		if (UDFNUML == timeout) {
			transmit_previous_timeout = 1;
			return -1;
		}
		// has the USB gone offline?
		if (!usb_configuration) return -1;
    1516:	8f ef       	ldi	r24, 0xFF	; 255
    1518:	01 c0       	rjmp	.+2      	; 0x151c <usb_serial_putchar+0xb0>
    151a:	8f ef       	ldi	r24, 0xFF	; 255
	// if this completed a packet, transmit it now!
	if (!(UEINTX & (1<<RWAL))) UEINTX = 0x3A;
	transmit_flush_timer = TRANSMIT_FLUSH_TIMEOUT;
	SREG = intr_state;
	return 0;
}
    151c:	df 91       	pop	r29
    151e:	cf 91       	pop	r28
    1520:	08 95       	ret

00001522 <__vector_10>:

// USB Device Interrupt - handle all device-level events
// the transmit buffer flushing is triggered by the start of frame
//
ISR(USB_GEN_vect)
{
    1522:	1f 92       	push	r1
    1524:	0f 92       	push	r0
    1526:	0f b6       	in	r0, 0x3f	; 63
    1528:	0f 92       	push	r0
    152a:	11 24       	eor	r1, r1
    152c:	8f 93       	push	r24
    152e:	9f 93       	push	r25
    1530:	ef 93       	push	r30
    1532:	ff 93       	push	r31
	uint8_t intbits, t;

        intbits = UDINT;
    1534:	e1 ee       	ldi	r30, 0xE1	; 225
    1536:	f0 e0       	ldi	r31, 0x00	; 0
    1538:	80 81       	ld	r24, Z
        UDINT = 0;
    153a:	10 82       	st	Z, r1
        if (intbits & (1<<EORSTI)) {
    153c:	83 ff       	sbrs	r24, 3
    153e:	11 c0       	rjmp	.+34     	; 0x1562 <__vector_10+0x40>
		UENUM = 0;
    1540:	10 92 e9 00 	sts	0x00E9, r1
		UECONX = 1;
    1544:	91 e0       	ldi	r25, 0x01	; 1
    1546:	90 93 eb 00 	sts	0x00EB, r25
		UECFG0X = EP_TYPE_CONTROL;
    154a:	10 92 ec 00 	sts	0x00EC, r1
		UECFG1X = EP_SIZE(ENDPOINT0_SIZE) | EP_SINGLE_BUFFER;
    154e:	92 e1       	ldi	r25, 0x12	; 18
    1550:	90 93 ed 00 	sts	0x00ED, r25
		UEIENX = (1<<RXSTPE);
    1554:	98 e0       	ldi	r25, 0x08	; 8
    1556:	90 93 f0 00 	sts	0x00F0, r25
		usb_configuration = 0;
    155a:	10 92 8b 02 	sts	0x028B, r1
		cdc_line_rtsdtr = 0;
    155e:	10 92 88 02 	sts	0x0288, r1
        }
	if (intbits & (1<<SOFI)) {
    1562:	82 ff       	sbrs	r24, 2
    1564:	13 c0       	rjmp	.+38     	; 0x158c <__vector_10+0x6a>
		if (usb_configuration) {
    1566:	80 91 8b 02 	lds	r24, 0x028B
    156a:	88 23       	and	r24, r24
    156c:	79 f0       	breq	.+30     	; 0x158c <__vector_10+0x6a>
			t = transmit_flush_timer;
    156e:	80 91 8a 02 	lds	r24, 0x028A
			if (t) {
    1572:	88 23       	and	r24, r24
    1574:	59 f0       	breq	.+22     	; 0x158c <__vector_10+0x6a>
				transmit_flush_timer = --t;
    1576:	81 50       	subi	r24, 0x01	; 1
    1578:	80 93 8a 02 	sts	0x028A, r24
				if (!t) {
    157c:	81 11       	cpse	r24, r1
    157e:	06 c0       	rjmp	.+12     	; 0x158c <__vector_10+0x6a>
					UENUM = CDC_TX_ENDPOINT;
    1580:	84 e0       	ldi	r24, 0x04	; 4
    1582:	80 93 e9 00 	sts	0x00E9, r24
					UEINTX = 0x3A;
    1586:	8a e3       	ldi	r24, 0x3A	; 58
    1588:	80 93 e8 00 	sts	0x00E8, r24
				}
			}
		}
	}
}
    158c:	ff 91       	pop	r31
    158e:	ef 91       	pop	r30
    1590:	9f 91       	pop	r25
    1592:	8f 91       	pop	r24
    1594:	0f 90       	pop	r0
    1596:	0f be       	out	0x3f, r0	; 63
    1598:	0f 90       	pop	r0
    159a:	1f 90       	pop	r1
    159c:	18 95       	reti

0000159e <__vector_11>:
// USB Endpoint Interrupt - endpoint 0 is handled here.  The
// other endpoints are manipulated by the user-callable
// functions, and the start-of-frame interrupt.
//
ISR(USB_COM_vect)
{
    159e:	1f 92       	push	r1
    15a0:	0f 92       	push	r0
    15a2:	0f b6       	in	r0, 0x3f	; 63
    15a4:	0f 92       	push	r0
    15a6:	11 24       	eor	r1, r1
    15a8:	0f 93       	push	r16
    15aa:	1f 93       	push	r17
    15ac:	2f 93       	push	r18
    15ae:	3f 93       	push	r19
    15b0:	4f 93       	push	r20
    15b2:	5f 93       	push	r21
    15b4:	6f 93       	push	r22
    15b6:	7f 93       	push	r23
    15b8:	8f 93       	push	r24
    15ba:	9f 93       	push	r25
    15bc:	af 93       	push	r26
    15be:	bf 93       	push	r27
    15c0:	cf 93       	push	r28
    15c2:	df 93       	push	r29
    15c4:	ef 93       	push	r30
    15c6:	ff 93       	push	r31
	uint16_t wLength;
	uint16_t desc_val;
	const uint8_t *desc_addr;
	uint8_t	desc_length;

        UENUM = 0;
    15c8:	10 92 e9 00 	sts	0x00E9, r1
        intbits = UEINTX;
    15cc:	80 91 e8 00 	lds	r24, 0x00E8
        if (intbits & (1<<RXSTPI)) {
    15d0:	83 ff       	sbrs	r24, 3
    15d2:	4c c1       	rjmp	.+664    	; 0x186c <__vector_11+0x2ce>
                bmRequestType = UEDATX;
    15d4:	e1 ef       	ldi	r30, 0xF1	; 241
    15d6:	f0 e0       	ldi	r31, 0x00	; 0
    15d8:	60 81       	ld	r22, Z
                bRequest = UEDATX;
    15da:	80 81       	ld	r24, Z
                wValue = UEDATX;
    15dc:	20 81       	ld	r18, Z
                wValue |= (UEDATX << 8);
    15de:	90 81       	ld	r25, Z
    15e0:	30 e0       	ldi	r19, 0x00	; 0
    15e2:	39 2b       	or	r19, r25
                wIndex = UEDATX;
    15e4:	40 81       	ld	r20, Z
                wIndex |= (UEDATX << 8);
    15e6:	90 81       	ld	r25, Z
    15e8:	50 e0       	ldi	r21, 0x00	; 0
    15ea:	59 2b       	or	r21, r25
                wLength = UEDATX;
    15ec:	70 81       	ld	r23, Z
                wLength |= (UEDATX << 8);
    15ee:	c0 81       	ld	r28, Z
                UEINTX = ~((1<<RXSTPI) | (1<<RXOUTI) | (1<<TXINI));
    15f0:	92 ef       	ldi	r25, 0xF2	; 242
    15f2:	90 93 e8 00 	sts	0x00E8, r25
                if (bRequest == GET_DESCRIPTOR) {
    15f6:	86 30       	cpi	r24, 0x06	; 6
    15f8:	09 f0       	breq	.+2      	; 0x15fc <__vector_11+0x5e>
    15fa:	58 c0       	rjmp	.+176    	; 0x16ac <__vector_11+0x10e>
    15fc:	04 c0       	rjmp	.+8      	; 0x1606 <__vector_11+0x68>
			list = (const uint8_t *)descriptor_list;
			for (i=0; ; i++) {
				if (i >= NUM_DESC_LIST) {
					UECONX = (1<<STALLRQ)|(1<<EPEN);  //stall
    15fe:	81 e2       	ldi	r24, 0x21	; 33
    1600:	80 93 eb 00 	sts	0x00EB, r24
					return;
    1604:	3a c1       	rjmp	.+628    	; 0x187a <__vector_11+0x2dc>
    1606:	66 e0       	ldi	r22, 0x06	; 6
    1608:	8c ea       	ldi	r24, 0xAC	; 172
    160a:	90 e0       	ldi	r25, 0x00	; 0
				}
				desc_val = pgm_read_word(list);
    160c:	fc 01       	movw	r30, r24
    160e:	a5 91       	lpm	r26, Z+
    1610:	b4 91       	lpm	r27, Z
				if (desc_val != wValue) {
    1612:	2a 17       	cp	r18, r26
    1614:	3b 07       	cpc	r19, r27
    1616:	11 f0       	breq	.+4      	; 0x161c <__vector_11+0x7e>
					list += sizeof(struct descriptor_list_struct);
    1618:	07 96       	adiw	r24, 0x07	; 7
					continue;
    161a:	23 c0       	rjmp	.+70     	; 0x1662 <__vector_11+0xc4>
				}
				list += 2;
    161c:	fc 01       	movw	r30, r24
    161e:	32 96       	adiw	r30, 0x02	; 2
				desc_val = pgm_read_word(list);
    1620:	a5 91       	lpm	r26, Z+
    1622:	b4 91       	lpm	r27, Z
				if (desc_val != wIndex) {
    1624:	4a 17       	cp	r20, r26
    1626:	5b 07       	cpc	r21, r27
    1628:	11 f0       	breq	.+4      	; 0x162e <__vector_11+0x90>
					list += sizeof(struct descriptor_list_struct)-2;
    162a:	07 96       	adiw	r24, 0x07	; 7
					continue;
    162c:	1a c0       	rjmp	.+52     	; 0x1662 <__vector_11+0xc4>
				}
				list += 2;
    162e:	fc 01       	movw	r30, r24
    1630:	34 96       	adiw	r30, 0x04	; 4
				desc_addr = (const uint8_t *)pgm_read_word(list);
    1632:	45 91       	lpm	r20, Z+
    1634:	54 91       	lpm	r21, Z
				list += 2;
    1636:	fc 01       	movw	r30, r24
    1638:	36 96       	adiw	r30, 0x06	; 6
				desc_length = pgm_read_byte(list);
    163a:	24 91       	lpm	r18, Z
                wValue = UEDATX;
                wValue |= (UEDATX << 8);
                wIndex = UEDATX;
                wIndex |= (UEDATX << 8);
                wLength = UEDATX;
                wLength |= (UEDATX << 8);
    163c:	87 2f       	mov	r24, r23
    163e:	90 e0       	ldi	r25, 0x00	; 0
    1640:	9c 2b       	or	r25, r28
				desc_addr = (const uint8_t *)pgm_read_word(list);
				list += 2;
				desc_length = pgm_read_byte(list);
				break;
			}
			len = (wLength < 256) ? wLength : 255;
    1642:	8f 3f       	cpi	r24, 0xFF	; 255
    1644:	91 05       	cpc	r25, r1
    1646:	19 f0       	breq	.+6      	; 0x164e <__vector_11+0xb0>
    1648:	10 f0       	brcs	.+4      	; 0x164e <__vector_11+0xb0>
    164a:	8f ef       	ldi	r24, 0xFF	; 255
    164c:	90 e0       	ldi	r25, 0x00	; 0
    164e:	82 17       	cp	r24, r18
    1650:	08 f4       	brcc	.+2      	; 0x1654 <__vector_11+0xb6>
    1652:	28 2f       	mov	r18, r24
			if (len > desc_length) len = desc_length;
			do {
				// wait for host ready for IN packet
				do {
					i = UEINTX;
    1654:	a8 ee       	ldi	r26, 0xE8	; 232
    1656:	b0 e0       	ldi	r27, 0x00	; 0
				} while (!(i & ((1<<TXINI)|(1<<RXOUTI))));
				if (i & (1<<RXOUTI)) return;	// abort
				// send IN packet
				n = len < ENDPOINT0_SIZE ? len : ENDPOINT0_SIZE;
    1658:	70 e1       	ldi	r23, 0x10	; 16
{
	while (!(UEINTX & (1<<TXINI))) ;
}
static inline void usb_send_in(void)
{
	UEINTX = ~(1<<TXINI);
    165a:	6e ef       	ldi	r22, 0xFE	; 254
				} while (!(i & ((1<<TXINI)|(1<<RXOUTI))));
				if (i & (1<<RXOUTI)) return;	// abort
				// send IN packet
				n = len < ENDPOINT0_SIZE ? len : ENDPOINT0_SIZE;
				for (i = n; i; i--) {
					UEDATX = pgm_read_byte(desc_addr++);
    165c:	c1 ef       	ldi	r28, 0xF1	; 241
    165e:	d0 e0       	ldi	r29, 0x00	; 0
    1660:	03 c0       	rjmp	.+6      	; 0x1668 <__vector_11+0xca>
    1662:	61 50       	subi	r22, 0x01	; 1
                wLength |= (UEDATX << 8);
                UEINTX = ~((1<<RXSTPI) | (1<<RXOUTI) | (1<<TXINI));
                if (bRequest == GET_DESCRIPTOR) {
			list = (const uint8_t *)descriptor_list;
			for (i=0; ; i++) {
				if (i >= NUM_DESC_LIST) {
    1664:	99 f6       	brne	.-90     	; 0x160c <__vector_11+0x6e>
    1666:	cb cf       	rjmp	.-106    	; 0x15fe <__vector_11+0x60>
			len = (wLength < 256) ? wLength : 255;
			if (len > desc_length) len = desc_length;
			do {
				// wait for host ready for IN packet
				do {
					i = UEINTX;
    1668:	8c 91       	ld	r24, X
				} while (!(i & ((1<<TXINI)|(1<<RXOUTI))));
    166a:	98 2f       	mov	r25, r24
    166c:	95 70       	andi	r25, 0x05	; 5
    166e:	e1 f3       	breq	.-8      	; 0x1668 <__vector_11+0xca>
				if (i & (1<<RXOUTI)) return;	// abort
    1670:	82 fd       	sbrc	r24, 2
    1672:	03 c1       	rjmp	.+518    	; 0x187a <__vector_11+0x2dc>
				// send IN packet
				n = len < ENDPOINT0_SIZE ? len : ENDPOINT0_SIZE;
    1674:	32 2f       	mov	r19, r18
    1676:	21 31       	cpi	r18, 0x11	; 17
    1678:	08 f0       	brcs	.+2      	; 0x167c <__vector_11+0xde>
    167a:	37 2f       	mov	r19, r23
				for (i = n; i; i--) {
    167c:	33 23       	and	r19, r19
    167e:	09 f4       	brne	.+2      	; 0x1682 <__vector_11+0xe4>
    1680:	f9 c0       	rjmp	.+498    	; 0x1874 <__vector_11+0x2d6>
    1682:	fa 01       	movw	r30, r20
    1684:	83 2f       	mov	r24, r19
					UEDATX = pgm_read_byte(desc_addr++);
    1686:	94 91       	lpm	r25, Z
    1688:	98 83       	st	Y, r25
					i = UEINTX;
				} while (!(i & ((1<<TXINI)|(1<<RXOUTI))));
				if (i & (1<<RXOUTI)) return;	// abort
				// send IN packet
				n = len < ENDPOINT0_SIZE ? len : ENDPOINT0_SIZE;
				for (i = n; i; i--) {
    168a:	81 50       	subi	r24, 0x01	; 1
    168c:	31 96       	adiw	r30, 0x01	; 1
    168e:	81 11       	cpse	r24, r1
    1690:	fa cf       	rjmp	.-12     	; 0x1686 <__vector_11+0xe8>
    1692:	8f ef       	ldi	r24, 0xFF	; 255
    1694:	83 0f       	add	r24, r19
    1696:	90 e0       	ldi	r25, 0x00	; 0
    1698:	01 96       	adiw	r24, 0x01	; 1
    169a:	48 0f       	add	r20, r24
    169c:	59 1f       	adc	r21, r25
					UEDATX = pgm_read_byte(desc_addr++);
				}
				len -= n;
    169e:	23 1b       	sub	r18, r19
{
	while (!(UEINTX & (1<<TXINI))) ;
}
static inline void usb_send_in(void)
{
	UEINTX = ~(1<<TXINI);
    16a0:	6c 93       	st	X, r22
				for (i = n; i; i--) {
					UEDATX = pgm_read_byte(desc_addr++);
				}
				len -= n;
				usb_send_in();
			} while (len || n == ENDPOINT0_SIZE);
    16a2:	21 11       	cpse	r18, r1
    16a4:	e1 cf       	rjmp	.-62     	; 0x1668 <__vector_11+0xca>
    16a6:	30 31       	cpi	r19, 0x10	; 16
    16a8:	f9 f2       	breq	.-66     	; 0x1668 <__vector_11+0xca>
    16aa:	e7 c0       	rjmp	.+462    	; 0x187a <__vector_11+0x2dc>
			return;
                }
		if (bRequest == SET_ADDRESS) {
    16ac:	85 30       	cpi	r24, 0x05	; 5
    16ae:	61 f4       	brne	.+24     	; 0x16c8 <__vector_11+0x12a>
{
	while (!(UEINTX & (1<<TXINI))) ;
}
static inline void usb_send_in(void)
{
	UEINTX = ~(1<<TXINI);
    16b0:	8e ef       	ldi	r24, 0xFE	; 254
    16b2:	80 93 e8 00 	sts	0x00E8, r24


// Misc functions to wait for ready and send/receive packets
static inline void usb_wait_in_ready(void)
{
	while (!(UEINTX & (1<<TXINI))) ;
    16b6:	e8 ee       	ldi	r30, 0xE8	; 232
    16b8:	f0 e0       	ldi	r31, 0x00	; 0
    16ba:	80 81       	ld	r24, Z
    16bc:	80 ff       	sbrs	r24, 0
    16be:	fd cf       	rjmp	.-6      	; 0x16ba <__vector_11+0x11c>
			return;
                }
		if (bRequest == SET_ADDRESS) {
			usb_send_in();
			usb_wait_in_ready();
			UDADDR = wValue | (1<<ADDEN);
    16c0:	20 68       	ori	r18, 0x80	; 128
    16c2:	20 93 e3 00 	sts	0x00E3, r18
			return;
    16c6:	d9 c0       	rjmp	.+434    	; 0x187a <__vector_11+0x2dc>
		}
		if (bRequest == SET_CONFIGURATION && bmRequestType == 0) {
    16c8:	89 30       	cpi	r24, 0x09	; 9
    16ca:	09 f0       	breq	.+2      	; 0x16ce <__vector_11+0x130>
    16cc:	35 c0       	rjmp	.+106    	; 0x1738 <__vector_11+0x19a>
    16ce:	61 11       	cpse	r22, r1
    16d0:	cd c0       	rjmp	.+410    	; 0x186c <__vector_11+0x2ce>
			usb_configuration = wValue;
    16d2:	20 93 8b 02 	sts	0x028B, r18
			cdc_line_rtsdtr = 0;
    16d6:	10 92 88 02 	sts	0x0288, r1
			transmit_flush_timer = 0;
    16da:	10 92 8a 02 	sts	0x028A, r1
{
	while (!(UEINTX & (1<<TXINI))) ;
}
static inline void usb_send_in(void)
{
	UEINTX = ~(1<<TXINI);
    16de:	8e ef       	ldi	r24, 0xFE	; 254
    16e0:	80 93 e8 00 	sts	0x00E8, r24
			usb_configuration = wValue;
			cdc_line_rtsdtr = 0;
			transmit_flush_timer = 0;
			usb_send_in();
			cfg = endpoint_config_table;
			for (i=1; i<5; i++) {
    16e4:	81 e0       	ldi	r24, 0x01	; 1
		if (bRequest == SET_CONFIGURATION && bmRequestType == 0) {
			usb_configuration = wValue;
			cdc_line_rtsdtr = 0;
			transmit_flush_timer = 0;
			usb_send_in();
			cfg = endpoint_config_table;
    16e6:	21 e7       	ldi	r18, 0x71	; 113
    16e8:	31 e0       	ldi	r19, 0x01	; 1
			for (i=1; i<5; i++) {
				UENUM = i;
    16ea:	c9 ee       	ldi	r28, 0xE9	; 233
    16ec:	d0 e0       	ldi	r29, 0x00	; 0
				en = pgm_read_byte(cfg++);
				UECONX = en;
    16ee:	ab ee       	ldi	r26, 0xEB	; 235
    16f0:	b0 e0       	ldi	r27, 0x00	; 0
				if (en) {
					UECFG0X = pgm_read_byte(cfg++);
    16f2:	0c ee       	ldi	r16, 0xEC	; 236
    16f4:	10 e0       	ldi	r17, 0x00	; 0
					UECFG1X = pgm_read_byte(cfg++);
    16f6:	6d ee       	ldi	r22, 0xED	; 237
    16f8:	70 e0       	ldi	r23, 0x00	; 0
			cdc_line_rtsdtr = 0;
			transmit_flush_timer = 0;
			usb_send_in();
			cfg = endpoint_config_table;
			for (i=1; i<5; i++) {
				UENUM = i;
    16fa:	88 83       	st	Y, r24
				en = pgm_read_byte(cfg++);
    16fc:	a9 01       	movw	r20, r18
    16fe:	4f 5f       	subi	r20, 0xFF	; 255
    1700:	5f 4f       	sbci	r21, 0xFF	; 255
    1702:	f9 01       	movw	r30, r18
    1704:	94 91       	lpm	r25, Z
				UECONX = en;
    1706:	9c 93       	st	X, r25
				if (en) {
    1708:	99 23       	and	r25, r25
    170a:	61 f0       	breq	.+24     	; 0x1724 <__vector_11+0x186>
					UECFG0X = pgm_read_byte(cfg++);
    170c:	fa 01       	movw	r30, r20
    170e:	44 91       	lpm	r20, Z
    1710:	f8 01       	movw	r30, r16
    1712:	40 83       	st	Z, r20
					UECFG1X = pgm_read_byte(cfg++);
    1714:	f9 01       	movw	r30, r18
    1716:	32 96       	adiw	r30, 0x02	; 2
    1718:	94 91       	lpm	r25, Z
    171a:	2d 5f       	subi	r18, 0xFD	; 253
    171c:	3f 4f       	sbci	r19, 0xFF	; 255
    171e:	fb 01       	movw	r30, r22
    1720:	90 83       	st	Z, r25
    1722:	01 c0       	rjmp	.+2      	; 0x1726 <__vector_11+0x188>
			transmit_flush_timer = 0;
			usb_send_in();
			cfg = endpoint_config_table;
			for (i=1; i<5; i++) {
				UENUM = i;
				en = pgm_read_byte(cfg++);
    1724:	9a 01       	movw	r18, r20
			usb_configuration = wValue;
			cdc_line_rtsdtr = 0;
			transmit_flush_timer = 0;
			usb_send_in();
			cfg = endpoint_config_table;
			for (i=1; i<5; i++) {
    1726:	8f 5f       	subi	r24, 0xFF	; 255
    1728:	85 30       	cpi	r24, 0x05	; 5
    172a:	39 f7       	brne	.-50     	; 0x16fa <__vector_11+0x15c>
				if (en) {
					UECFG0X = pgm_read_byte(cfg++);
					UECFG1X = pgm_read_byte(cfg++);
				}
			}
        		UERST = 0x1E;
    172c:	ea ee       	ldi	r30, 0xEA	; 234
    172e:	f0 e0       	ldi	r31, 0x00	; 0
    1730:	8e e1       	ldi	r24, 0x1E	; 30
    1732:	80 83       	st	Z, r24
        		UERST = 0;
    1734:	10 82       	st	Z, r1
			return;
    1736:	a1 c0       	rjmp	.+322    	; 0x187a <__vector_11+0x2dc>
		}
		if (bRequest == GET_CONFIGURATION && bmRequestType == 0x80) {
    1738:	88 30       	cpi	r24, 0x08	; 8
    173a:	81 f4       	brne	.+32     	; 0x175c <__vector_11+0x1be>
    173c:	60 38       	cpi	r22, 0x80	; 128
    173e:	09 f0       	breq	.+2      	; 0x1742 <__vector_11+0x1a4>
    1740:	95 c0       	rjmp	.+298    	; 0x186c <__vector_11+0x2ce>


// Misc functions to wait for ready and send/receive packets
static inline void usb_wait_in_ready(void)
{
	while (!(UEINTX & (1<<TXINI))) ;
    1742:	e8 ee       	ldi	r30, 0xE8	; 232
    1744:	f0 e0       	ldi	r31, 0x00	; 0
    1746:	80 81       	ld	r24, Z
    1748:	80 ff       	sbrs	r24, 0
    174a:	fd cf       	rjmp	.-6      	; 0x1746 <__vector_11+0x1a8>
        		UERST = 0;
			return;
		}
		if (bRequest == GET_CONFIGURATION && bmRequestType == 0x80) {
			usb_wait_in_ready();
			UEDATX = usb_configuration;
    174c:	80 91 8b 02 	lds	r24, 0x028B
    1750:	80 93 f1 00 	sts	0x00F1, r24
{
	while (!(UEINTX & (1<<TXINI))) ;
}
static inline void usb_send_in(void)
{
	UEINTX = ~(1<<TXINI);
    1754:	8e ef       	ldi	r24, 0xFE	; 254
    1756:	80 93 e8 00 	sts	0x00E8, r24
    175a:	8f c0       	rjmp	.+286    	; 0x187a <__vector_11+0x2dc>
			usb_wait_in_ready();
			UEDATX = usb_configuration;
			usb_send_in();
			return;
		}
		if (bRequest == CDC_GET_LINE_CODING && bmRequestType == 0xA1) {
    175c:	81 32       	cpi	r24, 0x21	; 33
    175e:	b9 f4       	brne	.+46     	; 0x178e <__vector_11+0x1f0>
    1760:	61 3a       	cpi	r22, 0xA1	; 161
    1762:	09 f0       	breq	.+2      	; 0x1766 <__vector_11+0x1c8>
    1764:	83 c0       	rjmp	.+262    	; 0x186c <__vector_11+0x2ce>


// Misc functions to wait for ready and send/receive packets
static inline void usb_wait_in_ready(void)
{
	while (!(UEINTX & (1<<TXINI))) ;
    1766:	e8 ee       	ldi	r30, 0xE8	; 232
    1768:	f0 e0       	ldi	r31, 0x00	; 0
    176a:	80 81       	ld	r24, Z
    176c:	80 ff       	sbrs	r24, 0
    176e:	fd cf       	rjmp	.-6      	; 0x176a <__vector_11+0x1cc>
    1770:	e9 e1       	ldi	r30, 0x19	; 25
    1772:	f1 e0       	ldi	r31, 0x01	; 1
    1774:	20 e2       	ldi	r18, 0x20	; 32
    1776:	31 e0       	ldi	r19, 0x01	; 1
		}
		if (bRequest == CDC_GET_LINE_CODING && bmRequestType == 0xA1) {
			usb_wait_in_ready();
			p = cdc_line_coding;
			for (i=0; i<7; i++) {
				UEDATX = *p++;
    1778:	a1 ef       	ldi	r26, 0xF1	; 241
    177a:	b0 e0       	ldi	r27, 0x00	; 0
    177c:	81 91       	ld	r24, Z+
    177e:	8c 93       	st	X, r24
			return;
		}
		if (bRequest == CDC_GET_LINE_CODING && bmRequestType == 0xA1) {
			usb_wait_in_ready();
			p = cdc_line_coding;
			for (i=0; i<7; i++) {
    1780:	e2 17       	cp	r30, r18
    1782:	f3 07       	cpc	r31, r19
    1784:	d9 f7       	brne	.-10     	; 0x177c <__vector_11+0x1de>
{
	while (!(UEINTX & (1<<TXINI))) ;
}
static inline void usb_send_in(void)
{
	UEINTX = ~(1<<TXINI);
    1786:	8e ef       	ldi	r24, 0xFE	; 254
    1788:	80 93 e8 00 	sts	0x00E8, r24
    178c:	76 c0       	rjmp	.+236    	; 0x187a <__vector_11+0x2dc>
				UEDATX = *p++;
			}
			usb_send_in();
			return;
		}
		if (bRequest == CDC_SET_LINE_CODING && bmRequestType == 0x21) {
    178e:	80 32       	cpi	r24, 0x20	; 32
    1790:	d1 f4       	brne	.+52     	; 0x17c6 <__vector_11+0x228>
    1792:	61 32       	cpi	r22, 0x21	; 33
    1794:	09 f0       	breq	.+2      	; 0x1798 <__vector_11+0x1fa>
    1796:	6a c0       	rjmp	.+212    	; 0x186c <__vector_11+0x2ce>
{
	UEINTX = ~(1<<TXINI);
}
static inline void usb_wait_receive_out(void)
{
	while (!(UEINTX & (1<<RXOUTI))) ;
    1798:	e8 ee       	ldi	r30, 0xE8	; 232
    179a:	f0 e0       	ldi	r31, 0x00	; 0
    179c:	80 81       	ld	r24, Z
    179e:	82 ff       	sbrs	r24, 2
    17a0:	fd cf       	rjmp	.-6      	; 0x179c <__vector_11+0x1fe>
    17a2:	e9 e1       	ldi	r30, 0x19	; 25
    17a4:	f1 e0       	ldi	r31, 0x01	; 1
    17a6:	20 e2       	ldi	r18, 0x20	; 32
    17a8:	31 e0       	ldi	r19, 0x01	; 1
		}
		if (bRequest == CDC_SET_LINE_CODING && bmRequestType == 0x21) {
			usb_wait_receive_out();
			p = cdc_line_coding;
			for (i=0; i<7; i++) {
				*p++ = UEDATX;
    17aa:	a1 ef       	ldi	r26, 0xF1	; 241
    17ac:	b0 e0       	ldi	r27, 0x00	; 0
    17ae:	8c 91       	ld	r24, X
    17b0:	81 93       	st	Z+, r24
			return;
		}
		if (bRequest == CDC_SET_LINE_CODING && bmRequestType == 0x21) {
			usb_wait_receive_out();
			p = cdc_line_coding;
			for (i=0; i<7; i++) {
    17b2:	e2 17       	cp	r30, r18
    17b4:	f3 07       	cpc	r31, r19
    17b6:	d9 f7       	brne	.-10     	; 0x17ae <__vector_11+0x210>
{
	while (!(UEINTX & (1<<RXOUTI))) ;
}
static inline void usb_ack_out(void)
{
	UEINTX = ~(1<<RXOUTI);
    17b8:	e8 ee       	ldi	r30, 0xE8	; 232
    17ba:	f0 e0       	ldi	r31, 0x00	; 0
    17bc:	8b ef       	ldi	r24, 0xFB	; 251
    17be:	80 83       	st	Z, r24
{
	while (!(UEINTX & (1<<TXINI))) ;
}
static inline void usb_send_in(void)
{
	UEINTX = ~(1<<TXINI);
    17c0:	8e ef       	ldi	r24, 0xFE	; 254
    17c2:	80 83       	st	Z, r24
    17c4:	5a c0       	rjmp	.+180    	; 0x187a <__vector_11+0x2dc>
			}
			usb_ack_out();
			usb_send_in();
			return;
		}
		if (bRequest == CDC_SET_CONTROL_LINE_STATE && bmRequestType == 0x21) {
    17c6:	82 32       	cpi	r24, 0x22	; 34
    17c8:	71 f4       	brne	.+28     	; 0x17e6 <__vector_11+0x248>
    17ca:	61 32       	cpi	r22, 0x21	; 33
    17cc:	09 f0       	breq	.+2      	; 0x17d0 <__vector_11+0x232>
    17ce:	4e c0       	rjmp	.+156    	; 0x186c <__vector_11+0x2ce>
			cdc_line_rtsdtr = wValue;
    17d0:	20 93 88 02 	sts	0x0288, r18


// Misc functions to wait for ready and send/receive packets
static inline void usb_wait_in_ready(void)
{
	while (!(UEINTX & (1<<TXINI))) ;
    17d4:	e8 ee       	ldi	r30, 0xE8	; 232
    17d6:	f0 e0       	ldi	r31, 0x00	; 0
    17d8:	80 81       	ld	r24, Z
    17da:	80 ff       	sbrs	r24, 0
    17dc:	fd cf       	rjmp	.-6      	; 0x17d8 <__vector_11+0x23a>
}
static inline void usb_send_in(void)
{
	UEINTX = ~(1<<TXINI);
    17de:	8e ef       	ldi	r24, 0xFE	; 254
    17e0:	80 93 e8 00 	sts	0x00E8, r24
    17e4:	4a c0       	rjmp	.+148    	; 0x187a <__vector_11+0x2dc>
			cdc_line_rtsdtr = wValue;
			usb_wait_in_ready();
			usb_send_in();
			return;
		}
		if (bRequest == GET_STATUS) {
    17e6:	81 11       	cpse	r24, r1
    17e8:	1a c0       	rjmp	.+52     	; 0x181e <__vector_11+0x280>


// Misc functions to wait for ready and send/receive packets
static inline void usb_wait_in_ready(void)
{
	while (!(UEINTX & (1<<TXINI))) ;
    17ea:	e8 ee       	ldi	r30, 0xE8	; 232
    17ec:	f0 e0       	ldi	r31, 0x00	; 0
    17ee:	80 81       	ld	r24, Z
    17f0:	80 ff       	sbrs	r24, 0
    17f2:	fd cf       	rjmp	.-6      	; 0x17ee <__vector_11+0x250>
		}
		if (bRequest == GET_STATUS) {
			usb_wait_in_ready();
			i = 0;
			#ifdef SUPPORT_ENDPOINT_HALT
			if (bmRequestType == 0x82) {
    17f4:	62 38       	cpi	r22, 0x82	; 130
    17f6:	51 f4       	brne	.+20     	; 0x180c <__vector_11+0x26e>
				UENUM = wIndex;
    17f8:	e9 ee       	ldi	r30, 0xE9	; 233
    17fa:	f0 e0       	ldi	r31, 0x00	; 0
    17fc:	40 83       	st	Z, r20
				if (UECONX & (1<<STALLRQ)) i = 1;
    17fe:	80 91 eb 00 	lds	r24, 0x00EB
    1802:	85 fb       	bst	r24, 5
    1804:	88 27       	eor	r24, r24
    1806:	80 f9       	bld	r24, 0
				UENUM = 0;
    1808:	10 82       	st	Z, r1
    180a:	01 c0       	rjmp	.+2      	; 0x180e <__vector_11+0x270>
			usb_send_in();
			return;
		}
		if (bRequest == GET_STATUS) {
			usb_wait_in_ready();
			i = 0;
    180c:	80 e0       	ldi	r24, 0x00	; 0
				UENUM = wIndex;
				if (UECONX & (1<<STALLRQ)) i = 1;
				UENUM = 0;
			}
			#endif
			UEDATX = i;
    180e:	e1 ef       	ldi	r30, 0xF1	; 241
    1810:	f0 e0       	ldi	r31, 0x00	; 0
    1812:	80 83       	st	Z, r24
			UEDATX = 0;
    1814:	10 82       	st	Z, r1
{
	while (!(UEINTX & (1<<TXINI))) ;
}
static inline void usb_send_in(void)
{
	UEINTX = ~(1<<TXINI);
    1816:	8e ef       	ldi	r24, 0xFE	; 254
    1818:	80 93 e8 00 	sts	0x00E8, r24
    181c:	2e c0       	rjmp	.+92     	; 0x187a <__vector_11+0x2dc>
			UEDATX = 0;
			usb_send_in();
			return;
		}
		#ifdef SUPPORT_ENDPOINT_HALT
		if ((bRequest == CLEAR_FEATURE || bRequest == SET_FEATURE)
    181e:	98 2f       	mov	r25, r24
    1820:	9d 7f       	andi	r25, 0xFD	; 253
    1822:	91 30       	cpi	r25, 0x01	; 1
    1824:	19 f5       	brne	.+70     	; 0x186c <__vector_11+0x2ce>
		  && bmRequestType == 0x02 && wValue == 0) {
    1826:	62 30       	cpi	r22, 0x02	; 2
    1828:	09 f5       	brne	.+66     	; 0x186c <__vector_11+0x2ce>
    182a:	23 2b       	or	r18, r19
    182c:	f9 f4       	brne	.+62     	; 0x186c <__vector_11+0x2ce>
			i = wIndex & 0x7F;
    182e:	4f 77       	andi	r20, 0x7F	; 127
			if (i >= 1 && i <= MAX_ENDPOINT) {
    1830:	9f ef       	ldi	r25, 0xFF	; 255
    1832:	94 0f       	add	r25, r20
    1834:	94 30       	cpi	r25, 0x04	; 4
    1836:	d0 f4       	brcc	.+52     	; 0x186c <__vector_11+0x2ce>
{
	while (!(UEINTX & (1<<TXINI))) ;
}
static inline void usb_send_in(void)
{
	UEINTX = ~(1<<TXINI);
    1838:	9e ef       	ldi	r25, 0xFE	; 254
    183a:	90 93 e8 00 	sts	0x00E8, r25
		if ((bRequest == CLEAR_FEATURE || bRequest == SET_FEATURE)
		  && bmRequestType == 0x02 && wValue == 0) {
			i = wIndex & 0x7F;
			if (i >= 1 && i <= MAX_ENDPOINT) {
				usb_send_in();
				UENUM = i;
    183e:	40 93 e9 00 	sts	0x00E9, r20
				if (bRequest == SET_FEATURE) {
    1842:	83 30       	cpi	r24, 0x03	; 3
    1844:	21 f4       	brne	.+8      	; 0x184e <__vector_11+0x2b0>
					UECONX = (1<<STALLRQ)|(1<<EPEN);
    1846:	81 e2       	ldi	r24, 0x21	; 33
    1848:	80 93 eb 00 	sts	0x00EB, r24
    184c:	16 c0       	rjmp	.+44     	; 0x187a <__vector_11+0x2dc>
				} else {
					UECONX = (1<<STALLRQC)|(1<<RSTDT)|(1<<EPEN);
    184e:	89 e1       	ldi	r24, 0x19	; 25
    1850:	80 93 eb 00 	sts	0x00EB, r24
					UERST = (1 << i);
    1854:	81 e0       	ldi	r24, 0x01	; 1
    1856:	90 e0       	ldi	r25, 0x00	; 0
    1858:	02 c0       	rjmp	.+4      	; 0x185e <__vector_11+0x2c0>
    185a:	88 0f       	add	r24, r24
    185c:	99 1f       	adc	r25, r25
    185e:	4a 95       	dec	r20
    1860:	e2 f7       	brpl	.-8      	; 0x185a <__vector_11+0x2bc>
    1862:	ea ee       	ldi	r30, 0xEA	; 234
    1864:	f0 e0       	ldi	r31, 0x00	; 0
    1866:	80 83       	st	Z, r24
					UERST = 0;
    1868:	10 82       	st	Z, r1
    186a:	07 c0       	rjmp	.+14     	; 0x187a <__vector_11+0x2dc>
				return;
			}
		}
		#endif
        }
	UECONX = (1<<STALLRQ) | (1<<EPEN);	// stall
    186c:	81 e2       	ldi	r24, 0x21	; 33
    186e:	80 93 eb 00 	sts	0x00EB, r24
    1872:	03 c0       	rjmp	.+6      	; 0x187a <__vector_11+0x2dc>
{
	while (!(UEINTX & (1<<TXINI))) ;
}
static inline void usb_send_in(void)
{
	UEINTX = ~(1<<TXINI);
    1874:	6c 93       	st	X, r22
				for (i = n; i; i--) {
					UEDATX = pgm_read_byte(desc_addr++);
				}
				len -= n;
				usb_send_in();
			} while (len || n == ENDPOINT0_SIZE);
    1876:	21 11       	cpse	r18, r1
    1878:	f7 ce       	rjmp	.-530    	; 0x1668 <__vector_11+0xca>
			}
		}
		#endif
        }
	UECONX = (1<<STALLRQ) | (1<<EPEN);	// stall
}
    187a:	ff 91       	pop	r31
    187c:	ef 91       	pop	r30
    187e:	df 91       	pop	r29
    1880:	cf 91       	pop	r28
    1882:	bf 91       	pop	r27
    1884:	af 91       	pop	r26
    1886:	9f 91       	pop	r25
    1888:	8f 91       	pop	r24
    188a:	7f 91       	pop	r23
    188c:	6f 91       	pop	r22
    188e:	5f 91       	pop	r21
    1890:	4f 91       	pop	r20
    1892:	3f 91       	pop	r19
    1894:	2f 91       	pop	r18
    1896:	1f 91       	pop	r17
    1898:	0f 91       	pop	r16
    189a:	0f 90       	pop	r0
    189c:	0f be       	out	0x3f, r0	; 63
    189e:	0f 90       	pop	r0
    18a0:	1f 90       	pop	r1
    18a2:	18 95       	reti

000018a4 <__divmodhi4>:
    18a4:	97 fb       	bst	r25, 7
    18a6:	07 2e       	mov	r0, r23
    18a8:	16 f4       	brtc	.+4      	; 0x18ae <__divmodhi4+0xa>
    18aa:	00 94       	com	r0
    18ac:	07 d0       	rcall	.+14     	; 0x18bc <__divmodhi4_neg1>
    18ae:	77 fd       	sbrc	r23, 7
    18b0:	09 d0       	rcall	.+18     	; 0x18c4 <__divmodhi4_neg2>
    18b2:	0e 94 66 0c 	call	0x18cc	; 0x18cc <__udivmodhi4>
    18b6:	07 fc       	sbrc	r0, 7
    18b8:	05 d0       	rcall	.+10     	; 0x18c4 <__divmodhi4_neg2>
    18ba:	3e f4       	brtc	.+14     	; 0x18ca <__divmodhi4_exit>

000018bc <__divmodhi4_neg1>:
    18bc:	90 95       	com	r25
    18be:	81 95       	neg	r24
    18c0:	9f 4f       	sbci	r25, 0xFF	; 255
    18c2:	08 95       	ret

000018c4 <__divmodhi4_neg2>:
    18c4:	70 95       	com	r23
    18c6:	61 95       	neg	r22
    18c8:	7f 4f       	sbci	r23, 0xFF	; 255

000018ca <__divmodhi4_exit>:
    18ca:	08 95       	ret

000018cc <__udivmodhi4>:
    18cc:	aa 1b       	sub	r26, r26
    18ce:	bb 1b       	sub	r27, r27
    18d0:	51 e1       	ldi	r21, 0x11	; 17
    18d2:	07 c0       	rjmp	.+14     	; 0x18e2 <__udivmodhi4_ep>

000018d4 <__udivmodhi4_loop>:
    18d4:	aa 1f       	adc	r26, r26
    18d6:	bb 1f       	adc	r27, r27
    18d8:	a6 17       	cp	r26, r22
    18da:	b7 07       	cpc	r27, r23
    18dc:	10 f0       	brcs	.+4      	; 0x18e2 <__udivmodhi4_ep>
    18de:	a6 1b       	sub	r26, r22
    18e0:	b7 0b       	sbc	r27, r23

000018e2 <__udivmodhi4_ep>:
    18e2:	88 1f       	adc	r24, r24
    18e4:	99 1f       	adc	r25, r25
    18e6:	5a 95       	dec	r21
    18e8:	a9 f7       	brne	.-22     	; 0x18d4 <__udivmodhi4_loop>
    18ea:	80 95       	com	r24
    18ec:	90 95       	com	r25
    18ee:	bc 01       	movw	r22, r24
    18f0:	cd 01       	movw	r24, r26
    18f2:	08 95       	ret

000018f4 <atoi>:
    18f4:	fc 01       	movw	r30, r24
    18f6:	88 27       	eor	r24, r24
    18f8:	99 27       	eor	r25, r25
    18fa:	e8 94       	clt
    18fc:	21 91       	ld	r18, Z+
    18fe:	20 32       	cpi	r18, 0x20	; 32
    1900:	e9 f3       	breq	.-6      	; 0x18fc <atoi+0x8>
    1902:	29 30       	cpi	r18, 0x09	; 9
    1904:	10 f0       	brcs	.+4      	; 0x190a <atoi+0x16>
    1906:	2e 30       	cpi	r18, 0x0E	; 14
    1908:	c8 f3       	brcs	.-14     	; 0x18fc <atoi+0x8>
    190a:	2b 32       	cpi	r18, 0x2B	; 43
    190c:	41 f0       	breq	.+16     	; 0x191e <atoi+0x2a>
    190e:	2d 32       	cpi	r18, 0x2D	; 45
    1910:	39 f4       	brne	.+14     	; 0x1920 <atoi+0x2c>
    1912:	68 94       	set
    1914:	04 c0       	rjmp	.+8      	; 0x191e <atoi+0x2a>
    1916:	0e 94 98 0c 	call	0x1930	; 0x1930 <__mulhi_const_10>
    191a:	82 0f       	add	r24, r18
    191c:	91 1d       	adc	r25, r1
    191e:	21 91       	ld	r18, Z+
    1920:	20 53       	subi	r18, 0x30	; 48
    1922:	2a 30       	cpi	r18, 0x0A	; 10
    1924:	c0 f3       	brcs	.-16     	; 0x1916 <atoi+0x22>
    1926:	1e f4       	brtc	.+6      	; 0x192e <atoi+0x3a>
    1928:	90 95       	com	r25
    192a:	81 95       	neg	r24
    192c:	9f 4f       	sbci	r25, 0xFF	; 255
    192e:	08 95       	ret

00001930 <__mulhi_const_10>:
    1930:	7a e0       	ldi	r23, 0x0A	; 10
    1932:	97 9f       	mul	r25, r23
    1934:	90 2d       	mov	r25, r0
    1936:	87 9f       	mul	r24, r23
    1938:	80 2d       	mov	r24, r0
    193a:	91 0d       	add	r25, r1
    193c:	11 24       	eor	r1, r1
    193e:	08 95       	ret

00001940 <sprintf>:
    1940:	ae e0       	ldi	r26, 0x0E	; 14
    1942:	b0 e0       	ldi	r27, 0x00	; 0
    1944:	e6 ea       	ldi	r30, 0xA6	; 166
    1946:	fc e0       	ldi	r31, 0x0C	; 12
    1948:	0c 94 69 0f 	jmp	0x1ed2	; 0x1ed2 <__prologue_saves__+0x1c>
    194c:	0d 89       	ldd	r16, Y+21	; 0x15
    194e:	1e 89       	ldd	r17, Y+22	; 0x16
    1950:	86 e0       	ldi	r24, 0x06	; 6
    1952:	8c 83       	std	Y+4, r24	; 0x04
    1954:	1a 83       	std	Y+2, r17	; 0x02
    1956:	09 83       	std	Y+1, r16	; 0x01
    1958:	8f ef       	ldi	r24, 0xFF	; 255
    195a:	9f e7       	ldi	r25, 0x7F	; 127
    195c:	9e 83       	std	Y+6, r25	; 0x06
    195e:	8d 83       	std	Y+5, r24	; 0x05
    1960:	ae 01       	movw	r20, r28
    1962:	47 5e       	subi	r20, 0xE7	; 231
    1964:	5f 4f       	sbci	r21, 0xFF	; 255
    1966:	6f 89       	ldd	r22, Y+23	; 0x17
    1968:	78 8d       	ldd	r23, Y+24	; 0x18
    196a:	ce 01       	movw	r24, r28
    196c:	01 96       	adiw	r24, 0x01	; 1
    196e:	0e 94 c3 0c 	call	0x1986	; 0x1986 <vfprintf>
    1972:	2f 81       	ldd	r18, Y+7	; 0x07
    1974:	38 85       	ldd	r19, Y+8	; 0x08
    1976:	f8 01       	movw	r30, r16
    1978:	e2 0f       	add	r30, r18
    197a:	f3 1f       	adc	r31, r19
    197c:	10 82       	st	Z, r1
    197e:	2e 96       	adiw	r28, 0x0e	; 14
    1980:	e4 e0       	ldi	r30, 0x04	; 4
    1982:	0c 94 85 0f 	jmp	0x1f0a	; 0x1f0a <__epilogue_restores__+0x1c>

00001986 <vfprintf>:
    1986:	ac e0       	ldi	r26, 0x0C	; 12
    1988:	b0 e0       	ldi	r27, 0x00	; 0
    198a:	e9 ec       	ldi	r30, 0xC9	; 201
    198c:	fc e0       	ldi	r31, 0x0C	; 12
    198e:	0c 94 5b 0f 	jmp	0x1eb6	; 0x1eb6 <__prologue_saves__>
    1992:	7c 01       	movw	r14, r24
    1994:	6b 01       	movw	r12, r22
    1996:	8a 01       	movw	r16, r20
    1998:	fc 01       	movw	r30, r24
    199a:	17 82       	std	Z+7, r1	; 0x07
    199c:	16 82       	std	Z+6, r1	; 0x06
    199e:	83 81       	ldd	r24, Z+3	; 0x03
    19a0:	81 ff       	sbrs	r24, 1
    19a2:	bd c1       	rjmp	.+890    	; 0x1d1e <vfprintf+0x398>
    19a4:	ce 01       	movw	r24, r28
    19a6:	01 96       	adiw	r24, 0x01	; 1
    19a8:	4c 01       	movw	r8, r24
    19aa:	f7 01       	movw	r30, r14
    19ac:	93 81       	ldd	r25, Z+3	; 0x03
    19ae:	f6 01       	movw	r30, r12
    19b0:	93 fd       	sbrc	r25, 3
    19b2:	85 91       	lpm	r24, Z+
    19b4:	93 ff       	sbrs	r25, 3
    19b6:	81 91       	ld	r24, Z+
    19b8:	6f 01       	movw	r12, r30
    19ba:	88 23       	and	r24, r24
    19bc:	09 f4       	brne	.+2      	; 0x19c0 <vfprintf+0x3a>
    19be:	ab c1       	rjmp	.+854    	; 0x1d16 <vfprintf+0x390>
    19c0:	85 32       	cpi	r24, 0x25	; 37
    19c2:	39 f4       	brne	.+14     	; 0x19d2 <vfprintf+0x4c>
    19c4:	93 fd       	sbrc	r25, 3
    19c6:	85 91       	lpm	r24, Z+
    19c8:	93 ff       	sbrs	r25, 3
    19ca:	81 91       	ld	r24, Z+
    19cc:	6f 01       	movw	r12, r30
    19ce:	85 32       	cpi	r24, 0x25	; 37
    19d0:	29 f4       	brne	.+10     	; 0x19dc <vfprintf+0x56>
    19d2:	b7 01       	movw	r22, r14
    19d4:	90 e0       	ldi	r25, 0x00	; 0
    19d6:	0e 94 ab 0e 	call	0x1d56	; 0x1d56 <fputc>
    19da:	e7 cf       	rjmp	.-50     	; 0x19aa <vfprintf+0x24>
    19dc:	51 2c       	mov	r5, r1
    19de:	31 2c       	mov	r3, r1
    19e0:	20 e0       	ldi	r18, 0x00	; 0
    19e2:	20 32       	cpi	r18, 0x20	; 32
    19e4:	a0 f4       	brcc	.+40     	; 0x1a0e <vfprintf+0x88>
    19e6:	8b 32       	cpi	r24, 0x2B	; 43
    19e8:	69 f0       	breq	.+26     	; 0x1a04 <vfprintf+0x7e>
    19ea:	30 f4       	brcc	.+12     	; 0x19f8 <vfprintf+0x72>
    19ec:	80 32       	cpi	r24, 0x20	; 32
    19ee:	59 f0       	breq	.+22     	; 0x1a06 <vfprintf+0x80>
    19f0:	83 32       	cpi	r24, 0x23	; 35
    19f2:	69 f4       	brne	.+26     	; 0x1a0e <vfprintf+0x88>
    19f4:	20 61       	ori	r18, 0x10	; 16
    19f6:	2c c0       	rjmp	.+88     	; 0x1a50 <vfprintf+0xca>
    19f8:	8d 32       	cpi	r24, 0x2D	; 45
    19fa:	39 f0       	breq	.+14     	; 0x1a0a <vfprintf+0x84>
    19fc:	80 33       	cpi	r24, 0x30	; 48
    19fe:	39 f4       	brne	.+14     	; 0x1a0e <vfprintf+0x88>
    1a00:	21 60       	ori	r18, 0x01	; 1
    1a02:	26 c0       	rjmp	.+76     	; 0x1a50 <vfprintf+0xca>
    1a04:	22 60       	ori	r18, 0x02	; 2
    1a06:	24 60       	ori	r18, 0x04	; 4
    1a08:	23 c0       	rjmp	.+70     	; 0x1a50 <vfprintf+0xca>
    1a0a:	28 60       	ori	r18, 0x08	; 8
    1a0c:	21 c0       	rjmp	.+66     	; 0x1a50 <vfprintf+0xca>
    1a0e:	27 fd       	sbrc	r18, 7
    1a10:	27 c0       	rjmp	.+78     	; 0x1a60 <vfprintf+0xda>
    1a12:	30 ed       	ldi	r19, 0xD0	; 208
    1a14:	38 0f       	add	r19, r24
    1a16:	3a 30       	cpi	r19, 0x0A	; 10
    1a18:	78 f4       	brcc	.+30     	; 0x1a38 <vfprintf+0xb2>
    1a1a:	26 ff       	sbrs	r18, 6
    1a1c:	06 c0       	rjmp	.+12     	; 0x1a2a <vfprintf+0xa4>
    1a1e:	fa e0       	ldi	r31, 0x0A	; 10
    1a20:	5f 9e       	mul	r5, r31
    1a22:	30 0d       	add	r19, r0
    1a24:	11 24       	eor	r1, r1
    1a26:	53 2e       	mov	r5, r19
    1a28:	13 c0       	rjmp	.+38     	; 0x1a50 <vfprintf+0xca>
    1a2a:	8a e0       	ldi	r24, 0x0A	; 10
    1a2c:	38 9e       	mul	r3, r24
    1a2e:	30 0d       	add	r19, r0
    1a30:	11 24       	eor	r1, r1
    1a32:	33 2e       	mov	r3, r19
    1a34:	20 62       	ori	r18, 0x20	; 32
    1a36:	0c c0       	rjmp	.+24     	; 0x1a50 <vfprintf+0xca>
    1a38:	8e 32       	cpi	r24, 0x2E	; 46
    1a3a:	21 f4       	brne	.+8      	; 0x1a44 <vfprintf+0xbe>
    1a3c:	26 fd       	sbrc	r18, 6
    1a3e:	6b c1       	rjmp	.+726    	; 0x1d16 <vfprintf+0x390>
    1a40:	20 64       	ori	r18, 0x40	; 64
    1a42:	06 c0       	rjmp	.+12     	; 0x1a50 <vfprintf+0xca>
    1a44:	8c 36       	cpi	r24, 0x6C	; 108
    1a46:	11 f4       	brne	.+4      	; 0x1a4c <vfprintf+0xc6>
    1a48:	20 68       	ori	r18, 0x80	; 128
    1a4a:	02 c0       	rjmp	.+4      	; 0x1a50 <vfprintf+0xca>
    1a4c:	88 36       	cpi	r24, 0x68	; 104
    1a4e:	41 f4       	brne	.+16     	; 0x1a60 <vfprintf+0xda>
    1a50:	f6 01       	movw	r30, r12
    1a52:	93 fd       	sbrc	r25, 3
    1a54:	85 91       	lpm	r24, Z+
    1a56:	93 ff       	sbrs	r25, 3
    1a58:	81 91       	ld	r24, Z+
    1a5a:	6f 01       	movw	r12, r30
    1a5c:	81 11       	cpse	r24, r1
    1a5e:	c1 cf       	rjmp	.-126    	; 0x19e2 <vfprintf+0x5c>
    1a60:	98 2f       	mov	r25, r24
    1a62:	9f 7d       	andi	r25, 0xDF	; 223
    1a64:	95 54       	subi	r25, 0x45	; 69
    1a66:	93 30       	cpi	r25, 0x03	; 3
    1a68:	28 f4       	brcc	.+10     	; 0x1a74 <vfprintf+0xee>
    1a6a:	0c 5f       	subi	r16, 0xFC	; 252
    1a6c:	1f 4f       	sbci	r17, 0xFF	; 255
    1a6e:	ff e3       	ldi	r31, 0x3F	; 63
    1a70:	f9 83       	std	Y+1, r31	; 0x01
    1a72:	0d c0       	rjmp	.+26     	; 0x1a8e <vfprintf+0x108>
    1a74:	83 36       	cpi	r24, 0x63	; 99
    1a76:	31 f0       	breq	.+12     	; 0x1a84 <vfprintf+0xfe>
    1a78:	83 37       	cpi	r24, 0x73	; 115
    1a7a:	71 f0       	breq	.+28     	; 0x1a98 <vfprintf+0x112>
    1a7c:	83 35       	cpi	r24, 0x53	; 83
    1a7e:	09 f0       	breq	.+2      	; 0x1a82 <vfprintf+0xfc>
    1a80:	5b c0       	rjmp	.+182    	; 0x1b38 <vfprintf+0x1b2>
    1a82:	22 c0       	rjmp	.+68     	; 0x1ac8 <vfprintf+0x142>
    1a84:	f8 01       	movw	r30, r16
    1a86:	80 81       	ld	r24, Z
    1a88:	89 83       	std	Y+1, r24	; 0x01
    1a8a:	0e 5f       	subi	r16, 0xFE	; 254
    1a8c:	1f 4f       	sbci	r17, 0xFF	; 255
    1a8e:	44 24       	eor	r4, r4
    1a90:	43 94       	inc	r4
    1a92:	51 2c       	mov	r5, r1
    1a94:	54 01       	movw	r10, r8
    1a96:	15 c0       	rjmp	.+42     	; 0x1ac2 <vfprintf+0x13c>
    1a98:	38 01       	movw	r6, r16
    1a9a:	f2 e0       	ldi	r31, 0x02	; 2
    1a9c:	6f 0e       	add	r6, r31
    1a9e:	71 1c       	adc	r7, r1
    1aa0:	f8 01       	movw	r30, r16
    1aa2:	a0 80       	ld	r10, Z
    1aa4:	b1 80       	ldd	r11, Z+1	; 0x01
    1aa6:	26 ff       	sbrs	r18, 6
    1aa8:	03 c0       	rjmp	.+6      	; 0x1ab0 <vfprintf+0x12a>
    1aaa:	65 2d       	mov	r22, r5
    1aac:	70 e0       	ldi	r23, 0x00	; 0
    1aae:	02 c0       	rjmp	.+4      	; 0x1ab4 <vfprintf+0x12e>
    1ab0:	6f ef       	ldi	r22, 0xFF	; 255
    1ab2:	7f ef       	ldi	r23, 0xFF	; 255
    1ab4:	c5 01       	movw	r24, r10
    1ab6:	2c 87       	std	Y+12, r18	; 0x0c
    1ab8:	0e 94 a0 0e 	call	0x1d40	; 0x1d40 <strnlen>
    1abc:	2c 01       	movw	r4, r24
    1abe:	83 01       	movw	r16, r6
    1ac0:	2c 85       	ldd	r18, Y+12	; 0x0c
    1ac2:	2f 77       	andi	r18, 0x7F	; 127
    1ac4:	22 2e       	mov	r2, r18
    1ac6:	17 c0       	rjmp	.+46     	; 0x1af6 <vfprintf+0x170>
    1ac8:	38 01       	movw	r6, r16
    1aca:	f2 e0       	ldi	r31, 0x02	; 2
    1acc:	6f 0e       	add	r6, r31
    1ace:	71 1c       	adc	r7, r1
    1ad0:	f8 01       	movw	r30, r16
    1ad2:	a0 80       	ld	r10, Z
    1ad4:	b1 80       	ldd	r11, Z+1	; 0x01
    1ad6:	26 ff       	sbrs	r18, 6
    1ad8:	03 c0       	rjmp	.+6      	; 0x1ae0 <vfprintf+0x15a>
    1ada:	65 2d       	mov	r22, r5
    1adc:	70 e0       	ldi	r23, 0x00	; 0
    1ade:	02 c0       	rjmp	.+4      	; 0x1ae4 <vfprintf+0x15e>
    1ae0:	6f ef       	ldi	r22, 0xFF	; 255
    1ae2:	7f ef       	ldi	r23, 0xFF	; 255
    1ae4:	c5 01       	movw	r24, r10
    1ae6:	2c 87       	std	Y+12, r18	; 0x0c
    1ae8:	0e 94 95 0e 	call	0x1d2a	; 0x1d2a <strnlen_P>
    1aec:	2c 01       	movw	r4, r24
    1aee:	2c 85       	ldd	r18, Y+12	; 0x0c
    1af0:	20 68       	ori	r18, 0x80	; 128
    1af2:	22 2e       	mov	r2, r18
    1af4:	83 01       	movw	r16, r6
    1af6:	23 fc       	sbrc	r2, 3
    1af8:	1b c0       	rjmp	.+54     	; 0x1b30 <vfprintf+0x1aa>
    1afa:	83 2d       	mov	r24, r3
    1afc:	90 e0       	ldi	r25, 0x00	; 0
    1afe:	48 16       	cp	r4, r24
    1b00:	59 06       	cpc	r5, r25
    1b02:	b0 f4       	brcc	.+44     	; 0x1b30 <vfprintf+0x1aa>
    1b04:	b7 01       	movw	r22, r14
    1b06:	80 e2       	ldi	r24, 0x20	; 32
    1b08:	90 e0       	ldi	r25, 0x00	; 0
    1b0a:	0e 94 ab 0e 	call	0x1d56	; 0x1d56 <fputc>
    1b0e:	3a 94       	dec	r3
    1b10:	f4 cf       	rjmp	.-24     	; 0x1afa <vfprintf+0x174>
    1b12:	f5 01       	movw	r30, r10
    1b14:	27 fc       	sbrc	r2, 7
    1b16:	85 91       	lpm	r24, Z+
    1b18:	27 fe       	sbrs	r2, 7
    1b1a:	81 91       	ld	r24, Z+
    1b1c:	5f 01       	movw	r10, r30
    1b1e:	b7 01       	movw	r22, r14
    1b20:	90 e0       	ldi	r25, 0x00	; 0
    1b22:	0e 94 ab 0e 	call	0x1d56	; 0x1d56 <fputc>
    1b26:	31 10       	cpse	r3, r1
    1b28:	3a 94       	dec	r3
    1b2a:	f1 e0       	ldi	r31, 0x01	; 1
    1b2c:	4f 1a       	sub	r4, r31
    1b2e:	51 08       	sbc	r5, r1
    1b30:	41 14       	cp	r4, r1
    1b32:	51 04       	cpc	r5, r1
    1b34:	71 f7       	brne	.-36     	; 0x1b12 <vfprintf+0x18c>
    1b36:	e5 c0       	rjmp	.+458    	; 0x1d02 <vfprintf+0x37c>
    1b38:	84 36       	cpi	r24, 0x64	; 100
    1b3a:	11 f0       	breq	.+4      	; 0x1b40 <vfprintf+0x1ba>
    1b3c:	89 36       	cpi	r24, 0x69	; 105
    1b3e:	39 f5       	brne	.+78     	; 0x1b8e <vfprintf+0x208>
    1b40:	f8 01       	movw	r30, r16
    1b42:	27 ff       	sbrs	r18, 7
    1b44:	07 c0       	rjmp	.+14     	; 0x1b54 <vfprintf+0x1ce>
    1b46:	60 81       	ld	r22, Z
    1b48:	71 81       	ldd	r23, Z+1	; 0x01
    1b4a:	82 81       	ldd	r24, Z+2	; 0x02
    1b4c:	93 81       	ldd	r25, Z+3	; 0x03
    1b4e:	0c 5f       	subi	r16, 0xFC	; 252
    1b50:	1f 4f       	sbci	r17, 0xFF	; 255
    1b52:	08 c0       	rjmp	.+16     	; 0x1b64 <vfprintf+0x1de>
    1b54:	60 81       	ld	r22, Z
    1b56:	71 81       	ldd	r23, Z+1	; 0x01
    1b58:	07 2e       	mov	r0, r23
    1b5a:	00 0c       	add	r0, r0
    1b5c:	88 0b       	sbc	r24, r24
    1b5e:	99 0b       	sbc	r25, r25
    1b60:	0e 5f       	subi	r16, 0xFE	; 254
    1b62:	1f 4f       	sbci	r17, 0xFF	; 255
    1b64:	2f 76       	andi	r18, 0x6F	; 111
    1b66:	72 2e       	mov	r7, r18
    1b68:	97 ff       	sbrs	r25, 7
    1b6a:	09 c0       	rjmp	.+18     	; 0x1b7e <vfprintf+0x1f8>
    1b6c:	90 95       	com	r25
    1b6e:	80 95       	com	r24
    1b70:	70 95       	com	r23
    1b72:	61 95       	neg	r22
    1b74:	7f 4f       	sbci	r23, 0xFF	; 255
    1b76:	8f 4f       	sbci	r24, 0xFF	; 255
    1b78:	9f 4f       	sbci	r25, 0xFF	; 255
    1b7a:	20 68       	ori	r18, 0x80	; 128
    1b7c:	72 2e       	mov	r7, r18
    1b7e:	2a e0       	ldi	r18, 0x0A	; 10
    1b80:	30 e0       	ldi	r19, 0x00	; 0
    1b82:	a4 01       	movw	r20, r8
    1b84:	0e 94 e3 0e 	call	0x1dc6	; 0x1dc6 <__ultoa_invert>
    1b88:	a8 2e       	mov	r10, r24
    1b8a:	a8 18       	sub	r10, r8
    1b8c:	44 c0       	rjmp	.+136    	; 0x1c16 <vfprintf+0x290>
    1b8e:	85 37       	cpi	r24, 0x75	; 117
    1b90:	29 f4       	brne	.+10     	; 0x1b9c <vfprintf+0x216>
    1b92:	2f 7e       	andi	r18, 0xEF	; 239
    1b94:	b2 2e       	mov	r11, r18
    1b96:	2a e0       	ldi	r18, 0x0A	; 10
    1b98:	30 e0       	ldi	r19, 0x00	; 0
    1b9a:	25 c0       	rjmp	.+74     	; 0x1be6 <vfprintf+0x260>
    1b9c:	f2 2f       	mov	r31, r18
    1b9e:	f9 7f       	andi	r31, 0xF9	; 249
    1ba0:	bf 2e       	mov	r11, r31
    1ba2:	8f 36       	cpi	r24, 0x6F	; 111
    1ba4:	c1 f0       	breq	.+48     	; 0x1bd6 <vfprintf+0x250>
    1ba6:	18 f4       	brcc	.+6      	; 0x1bae <vfprintf+0x228>
    1ba8:	88 35       	cpi	r24, 0x58	; 88
    1baa:	79 f0       	breq	.+30     	; 0x1bca <vfprintf+0x244>
    1bac:	b4 c0       	rjmp	.+360    	; 0x1d16 <vfprintf+0x390>
    1bae:	80 37       	cpi	r24, 0x70	; 112
    1bb0:	19 f0       	breq	.+6      	; 0x1bb8 <vfprintf+0x232>
    1bb2:	88 37       	cpi	r24, 0x78	; 120
    1bb4:	21 f0       	breq	.+8      	; 0x1bbe <vfprintf+0x238>
    1bb6:	af c0       	rjmp	.+350    	; 0x1d16 <vfprintf+0x390>
    1bb8:	2f 2f       	mov	r18, r31
    1bba:	20 61       	ori	r18, 0x10	; 16
    1bbc:	b2 2e       	mov	r11, r18
    1bbe:	b4 fe       	sbrs	r11, 4
    1bc0:	0d c0       	rjmp	.+26     	; 0x1bdc <vfprintf+0x256>
    1bc2:	8b 2d       	mov	r24, r11
    1bc4:	84 60       	ori	r24, 0x04	; 4
    1bc6:	b8 2e       	mov	r11, r24
    1bc8:	09 c0       	rjmp	.+18     	; 0x1bdc <vfprintf+0x256>
    1bca:	24 ff       	sbrs	r18, 4
    1bcc:	0a c0       	rjmp	.+20     	; 0x1be2 <vfprintf+0x25c>
    1bce:	9f 2f       	mov	r25, r31
    1bd0:	96 60       	ori	r25, 0x06	; 6
    1bd2:	b9 2e       	mov	r11, r25
    1bd4:	06 c0       	rjmp	.+12     	; 0x1be2 <vfprintf+0x25c>
    1bd6:	28 e0       	ldi	r18, 0x08	; 8
    1bd8:	30 e0       	ldi	r19, 0x00	; 0
    1bda:	05 c0       	rjmp	.+10     	; 0x1be6 <vfprintf+0x260>
    1bdc:	20 e1       	ldi	r18, 0x10	; 16
    1bde:	30 e0       	ldi	r19, 0x00	; 0
    1be0:	02 c0       	rjmp	.+4      	; 0x1be6 <vfprintf+0x260>
    1be2:	20 e1       	ldi	r18, 0x10	; 16
    1be4:	32 e0       	ldi	r19, 0x02	; 2
    1be6:	f8 01       	movw	r30, r16
    1be8:	b7 fe       	sbrs	r11, 7
    1bea:	07 c0       	rjmp	.+14     	; 0x1bfa <vfprintf+0x274>
    1bec:	60 81       	ld	r22, Z
    1bee:	71 81       	ldd	r23, Z+1	; 0x01
    1bf0:	82 81       	ldd	r24, Z+2	; 0x02
    1bf2:	93 81       	ldd	r25, Z+3	; 0x03
    1bf4:	0c 5f       	subi	r16, 0xFC	; 252
    1bf6:	1f 4f       	sbci	r17, 0xFF	; 255
    1bf8:	06 c0       	rjmp	.+12     	; 0x1c06 <vfprintf+0x280>
    1bfa:	60 81       	ld	r22, Z
    1bfc:	71 81       	ldd	r23, Z+1	; 0x01
    1bfe:	80 e0       	ldi	r24, 0x00	; 0
    1c00:	90 e0       	ldi	r25, 0x00	; 0
    1c02:	0e 5f       	subi	r16, 0xFE	; 254
    1c04:	1f 4f       	sbci	r17, 0xFF	; 255
    1c06:	a4 01       	movw	r20, r8
    1c08:	0e 94 e3 0e 	call	0x1dc6	; 0x1dc6 <__ultoa_invert>
    1c0c:	a8 2e       	mov	r10, r24
    1c0e:	a8 18       	sub	r10, r8
    1c10:	fb 2d       	mov	r31, r11
    1c12:	ff 77       	andi	r31, 0x7F	; 127
    1c14:	7f 2e       	mov	r7, r31
    1c16:	76 fe       	sbrs	r7, 6
    1c18:	0b c0       	rjmp	.+22     	; 0x1c30 <vfprintf+0x2aa>
    1c1a:	37 2d       	mov	r19, r7
    1c1c:	3e 7f       	andi	r19, 0xFE	; 254
    1c1e:	a5 14       	cp	r10, r5
    1c20:	50 f4       	brcc	.+20     	; 0x1c36 <vfprintf+0x2b0>
    1c22:	74 fe       	sbrs	r7, 4
    1c24:	0a c0       	rjmp	.+20     	; 0x1c3a <vfprintf+0x2b4>
    1c26:	72 fc       	sbrc	r7, 2
    1c28:	08 c0       	rjmp	.+16     	; 0x1c3a <vfprintf+0x2b4>
    1c2a:	37 2d       	mov	r19, r7
    1c2c:	3e 7e       	andi	r19, 0xEE	; 238
    1c2e:	05 c0       	rjmp	.+10     	; 0x1c3a <vfprintf+0x2b4>
    1c30:	ba 2c       	mov	r11, r10
    1c32:	37 2d       	mov	r19, r7
    1c34:	03 c0       	rjmp	.+6      	; 0x1c3c <vfprintf+0x2b6>
    1c36:	ba 2c       	mov	r11, r10
    1c38:	01 c0       	rjmp	.+2      	; 0x1c3c <vfprintf+0x2b6>
    1c3a:	b5 2c       	mov	r11, r5
    1c3c:	34 ff       	sbrs	r19, 4
    1c3e:	0d c0       	rjmp	.+26     	; 0x1c5a <vfprintf+0x2d4>
    1c40:	fe 01       	movw	r30, r28
    1c42:	ea 0d       	add	r30, r10
    1c44:	f1 1d       	adc	r31, r1
    1c46:	80 81       	ld	r24, Z
    1c48:	80 33       	cpi	r24, 0x30	; 48
    1c4a:	11 f4       	brne	.+4      	; 0x1c50 <vfprintf+0x2ca>
    1c4c:	39 7e       	andi	r19, 0xE9	; 233
    1c4e:	09 c0       	rjmp	.+18     	; 0x1c62 <vfprintf+0x2dc>
    1c50:	32 ff       	sbrs	r19, 2
    1c52:	06 c0       	rjmp	.+12     	; 0x1c60 <vfprintf+0x2da>
    1c54:	b3 94       	inc	r11
    1c56:	b3 94       	inc	r11
    1c58:	04 c0       	rjmp	.+8      	; 0x1c62 <vfprintf+0x2dc>
    1c5a:	83 2f       	mov	r24, r19
    1c5c:	86 78       	andi	r24, 0x86	; 134
    1c5e:	09 f0       	breq	.+2      	; 0x1c62 <vfprintf+0x2dc>
    1c60:	b3 94       	inc	r11
    1c62:	33 fd       	sbrc	r19, 3
    1c64:	13 c0       	rjmp	.+38     	; 0x1c8c <vfprintf+0x306>
    1c66:	30 ff       	sbrs	r19, 0
    1c68:	06 c0       	rjmp	.+12     	; 0x1c76 <vfprintf+0x2f0>
    1c6a:	5a 2c       	mov	r5, r10
    1c6c:	b3 14       	cp	r11, r3
    1c6e:	18 f4       	brcc	.+6      	; 0x1c76 <vfprintf+0x2f0>
    1c70:	53 0c       	add	r5, r3
    1c72:	5b 18       	sub	r5, r11
    1c74:	b3 2c       	mov	r11, r3
    1c76:	b3 14       	cp	r11, r3
    1c78:	68 f4       	brcc	.+26     	; 0x1c94 <vfprintf+0x30e>
    1c7a:	b7 01       	movw	r22, r14
    1c7c:	80 e2       	ldi	r24, 0x20	; 32
    1c7e:	90 e0       	ldi	r25, 0x00	; 0
    1c80:	3c 87       	std	Y+12, r19	; 0x0c
    1c82:	0e 94 ab 0e 	call	0x1d56	; 0x1d56 <fputc>
    1c86:	b3 94       	inc	r11
    1c88:	3c 85       	ldd	r19, Y+12	; 0x0c
    1c8a:	f5 cf       	rjmp	.-22     	; 0x1c76 <vfprintf+0x2f0>
    1c8c:	b3 14       	cp	r11, r3
    1c8e:	10 f4       	brcc	.+4      	; 0x1c94 <vfprintf+0x30e>
    1c90:	3b 18       	sub	r3, r11
    1c92:	01 c0       	rjmp	.+2      	; 0x1c96 <vfprintf+0x310>
    1c94:	31 2c       	mov	r3, r1
    1c96:	34 ff       	sbrs	r19, 4
    1c98:	12 c0       	rjmp	.+36     	; 0x1cbe <vfprintf+0x338>
    1c9a:	b7 01       	movw	r22, r14
    1c9c:	80 e3       	ldi	r24, 0x30	; 48
    1c9e:	90 e0       	ldi	r25, 0x00	; 0
    1ca0:	3c 87       	std	Y+12, r19	; 0x0c
    1ca2:	0e 94 ab 0e 	call	0x1d56	; 0x1d56 <fputc>
    1ca6:	3c 85       	ldd	r19, Y+12	; 0x0c
    1ca8:	32 ff       	sbrs	r19, 2
    1caa:	17 c0       	rjmp	.+46     	; 0x1cda <vfprintf+0x354>
    1cac:	31 fd       	sbrc	r19, 1
    1cae:	03 c0       	rjmp	.+6      	; 0x1cb6 <vfprintf+0x330>
    1cb0:	88 e7       	ldi	r24, 0x78	; 120
    1cb2:	90 e0       	ldi	r25, 0x00	; 0
    1cb4:	02 c0       	rjmp	.+4      	; 0x1cba <vfprintf+0x334>
    1cb6:	88 e5       	ldi	r24, 0x58	; 88
    1cb8:	90 e0       	ldi	r25, 0x00	; 0
    1cba:	b7 01       	movw	r22, r14
    1cbc:	0c c0       	rjmp	.+24     	; 0x1cd6 <vfprintf+0x350>
    1cbe:	83 2f       	mov	r24, r19
    1cc0:	86 78       	andi	r24, 0x86	; 134
    1cc2:	59 f0       	breq	.+22     	; 0x1cda <vfprintf+0x354>
    1cc4:	31 ff       	sbrs	r19, 1
    1cc6:	02 c0       	rjmp	.+4      	; 0x1ccc <vfprintf+0x346>
    1cc8:	8b e2       	ldi	r24, 0x2B	; 43
    1cca:	01 c0       	rjmp	.+2      	; 0x1cce <vfprintf+0x348>
    1ccc:	80 e2       	ldi	r24, 0x20	; 32
    1cce:	37 fd       	sbrc	r19, 7
    1cd0:	8d e2       	ldi	r24, 0x2D	; 45
    1cd2:	b7 01       	movw	r22, r14
    1cd4:	90 e0       	ldi	r25, 0x00	; 0
    1cd6:	0e 94 ab 0e 	call	0x1d56	; 0x1d56 <fputc>
    1cda:	a5 14       	cp	r10, r5
    1cdc:	38 f4       	brcc	.+14     	; 0x1cec <vfprintf+0x366>
    1cde:	b7 01       	movw	r22, r14
    1ce0:	80 e3       	ldi	r24, 0x30	; 48
    1ce2:	90 e0       	ldi	r25, 0x00	; 0
    1ce4:	0e 94 ab 0e 	call	0x1d56	; 0x1d56 <fputc>
    1ce8:	5a 94       	dec	r5
    1cea:	f7 cf       	rjmp	.-18     	; 0x1cda <vfprintf+0x354>
    1cec:	aa 94       	dec	r10
    1cee:	f4 01       	movw	r30, r8
    1cf0:	ea 0d       	add	r30, r10
    1cf2:	f1 1d       	adc	r31, r1
    1cf4:	80 81       	ld	r24, Z
    1cf6:	b7 01       	movw	r22, r14
    1cf8:	90 e0       	ldi	r25, 0x00	; 0
    1cfa:	0e 94 ab 0e 	call	0x1d56	; 0x1d56 <fputc>
    1cfe:	a1 10       	cpse	r10, r1
    1d00:	f5 cf       	rjmp	.-22     	; 0x1cec <vfprintf+0x366>
    1d02:	33 20       	and	r3, r3
    1d04:	09 f4       	brne	.+2      	; 0x1d08 <vfprintf+0x382>
    1d06:	51 ce       	rjmp	.-862    	; 0x19aa <vfprintf+0x24>
    1d08:	b7 01       	movw	r22, r14
    1d0a:	80 e2       	ldi	r24, 0x20	; 32
    1d0c:	90 e0       	ldi	r25, 0x00	; 0
    1d0e:	0e 94 ab 0e 	call	0x1d56	; 0x1d56 <fputc>
    1d12:	3a 94       	dec	r3
    1d14:	f6 cf       	rjmp	.-20     	; 0x1d02 <vfprintf+0x37c>
    1d16:	f7 01       	movw	r30, r14
    1d18:	86 81       	ldd	r24, Z+6	; 0x06
    1d1a:	97 81       	ldd	r25, Z+7	; 0x07
    1d1c:	02 c0       	rjmp	.+4      	; 0x1d22 <vfprintf+0x39c>
    1d1e:	8f ef       	ldi	r24, 0xFF	; 255
    1d20:	9f ef       	ldi	r25, 0xFF	; 255
    1d22:	2c 96       	adiw	r28, 0x0c	; 12
    1d24:	e2 e1       	ldi	r30, 0x12	; 18
    1d26:	0c 94 77 0f 	jmp	0x1eee	; 0x1eee <__epilogue_restores__>

00001d2a <strnlen_P>:
    1d2a:	fc 01       	movw	r30, r24
    1d2c:	05 90       	lpm	r0, Z+
    1d2e:	61 50       	subi	r22, 0x01	; 1
    1d30:	70 40       	sbci	r23, 0x00	; 0
    1d32:	01 10       	cpse	r0, r1
    1d34:	d8 f7       	brcc	.-10     	; 0x1d2c <strnlen_P+0x2>
    1d36:	80 95       	com	r24
    1d38:	90 95       	com	r25
    1d3a:	8e 0f       	add	r24, r30
    1d3c:	9f 1f       	adc	r25, r31
    1d3e:	08 95       	ret

00001d40 <strnlen>:
    1d40:	fc 01       	movw	r30, r24
    1d42:	61 50       	subi	r22, 0x01	; 1
    1d44:	70 40       	sbci	r23, 0x00	; 0
    1d46:	01 90       	ld	r0, Z+
    1d48:	01 10       	cpse	r0, r1
    1d4a:	d8 f7       	brcc	.-10     	; 0x1d42 <strnlen+0x2>
    1d4c:	80 95       	com	r24
    1d4e:	90 95       	com	r25
    1d50:	8e 0f       	add	r24, r30
    1d52:	9f 1f       	adc	r25, r31
    1d54:	08 95       	ret

00001d56 <fputc>:
    1d56:	0f 93       	push	r16
    1d58:	1f 93       	push	r17
    1d5a:	cf 93       	push	r28
    1d5c:	df 93       	push	r29
    1d5e:	fb 01       	movw	r30, r22
    1d60:	23 81       	ldd	r18, Z+3	; 0x03
    1d62:	21 fd       	sbrc	r18, 1
    1d64:	03 c0       	rjmp	.+6      	; 0x1d6c <fputc+0x16>
    1d66:	8f ef       	ldi	r24, 0xFF	; 255
    1d68:	9f ef       	ldi	r25, 0xFF	; 255
    1d6a:	28 c0       	rjmp	.+80     	; 0x1dbc <fputc+0x66>
    1d6c:	22 ff       	sbrs	r18, 2
    1d6e:	16 c0       	rjmp	.+44     	; 0x1d9c <fputc+0x46>
    1d70:	46 81       	ldd	r20, Z+6	; 0x06
    1d72:	57 81       	ldd	r21, Z+7	; 0x07
    1d74:	24 81       	ldd	r18, Z+4	; 0x04
    1d76:	35 81       	ldd	r19, Z+5	; 0x05
    1d78:	42 17       	cp	r20, r18
    1d7a:	53 07       	cpc	r21, r19
    1d7c:	44 f4       	brge	.+16     	; 0x1d8e <fputc+0x38>
    1d7e:	a0 81       	ld	r26, Z
    1d80:	b1 81       	ldd	r27, Z+1	; 0x01
    1d82:	9d 01       	movw	r18, r26
    1d84:	2f 5f       	subi	r18, 0xFF	; 255
    1d86:	3f 4f       	sbci	r19, 0xFF	; 255
    1d88:	31 83       	std	Z+1, r19	; 0x01
    1d8a:	20 83       	st	Z, r18
    1d8c:	8c 93       	st	X, r24
    1d8e:	26 81       	ldd	r18, Z+6	; 0x06
    1d90:	37 81       	ldd	r19, Z+7	; 0x07
    1d92:	2f 5f       	subi	r18, 0xFF	; 255
    1d94:	3f 4f       	sbci	r19, 0xFF	; 255
    1d96:	37 83       	std	Z+7, r19	; 0x07
    1d98:	26 83       	std	Z+6, r18	; 0x06
    1d9a:	10 c0       	rjmp	.+32     	; 0x1dbc <fputc+0x66>
    1d9c:	eb 01       	movw	r28, r22
    1d9e:	09 2f       	mov	r16, r25
    1da0:	18 2f       	mov	r17, r24
    1da2:	00 84       	ldd	r0, Z+8	; 0x08
    1da4:	f1 85       	ldd	r31, Z+9	; 0x09
    1da6:	e0 2d       	mov	r30, r0
    1da8:	09 95       	icall
    1daa:	89 2b       	or	r24, r25
    1dac:	e1 f6       	brne	.-72     	; 0x1d66 <fputc+0x10>
    1dae:	8e 81       	ldd	r24, Y+6	; 0x06
    1db0:	9f 81       	ldd	r25, Y+7	; 0x07
    1db2:	01 96       	adiw	r24, 0x01	; 1
    1db4:	9f 83       	std	Y+7, r25	; 0x07
    1db6:	8e 83       	std	Y+6, r24	; 0x06
    1db8:	81 2f       	mov	r24, r17
    1dba:	90 2f       	mov	r25, r16
    1dbc:	df 91       	pop	r29
    1dbe:	cf 91       	pop	r28
    1dc0:	1f 91       	pop	r17
    1dc2:	0f 91       	pop	r16
    1dc4:	08 95       	ret

00001dc6 <__ultoa_invert>:
    1dc6:	fa 01       	movw	r30, r20
    1dc8:	aa 27       	eor	r26, r26
    1dca:	28 30       	cpi	r18, 0x08	; 8
    1dcc:	51 f1       	breq	.+84     	; 0x1e22 <__ultoa_invert+0x5c>
    1dce:	20 31       	cpi	r18, 0x10	; 16
    1dd0:	81 f1       	breq	.+96     	; 0x1e32 <__ultoa_invert+0x6c>
    1dd2:	e8 94       	clt
    1dd4:	6f 93       	push	r22
    1dd6:	6e 7f       	andi	r22, 0xFE	; 254
    1dd8:	6e 5f       	subi	r22, 0xFE	; 254
    1dda:	7f 4f       	sbci	r23, 0xFF	; 255
    1ddc:	8f 4f       	sbci	r24, 0xFF	; 255
    1dde:	9f 4f       	sbci	r25, 0xFF	; 255
    1de0:	af 4f       	sbci	r26, 0xFF	; 255
    1de2:	b1 e0       	ldi	r27, 0x01	; 1
    1de4:	3e d0       	rcall	.+124    	; 0x1e62 <__ultoa_invert+0x9c>
    1de6:	b4 e0       	ldi	r27, 0x04	; 4
    1de8:	3c d0       	rcall	.+120    	; 0x1e62 <__ultoa_invert+0x9c>
    1dea:	67 0f       	add	r22, r23
    1dec:	78 1f       	adc	r23, r24
    1dee:	89 1f       	adc	r24, r25
    1df0:	9a 1f       	adc	r25, r26
    1df2:	a1 1d       	adc	r26, r1
    1df4:	68 0f       	add	r22, r24
    1df6:	79 1f       	adc	r23, r25
    1df8:	8a 1f       	adc	r24, r26
    1dfa:	91 1d       	adc	r25, r1
    1dfc:	a1 1d       	adc	r26, r1
    1dfe:	6a 0f       	add	r22, r26
    1e00:	71 1d       	adc	r23, r1
    1e02:	81 1d       	adc	r24, r1
    1e04:	91 1d       	adc	r25, r1
    1e06:	a1 1d       	adc	r26, r1
    1e08:	20 d0       	rcall	.+64     	; 0x1e4a <__ultoa_invert+0x84>
    1e0a:	09 f4       	brne	.+2      	; 0x1e0e <__ultoa_invert+0x48>
    1e0c:	68 94       	set
    1e0e:	3f 91       	pop	r19
    1e10:	2a e0       	ldi	r18, 0x0A	; 10
    1e12:	26 9f       	mul	r18, r22
    1e14:	11 24       	eor	r1, r1
    1e16:	30 19       	sub	r19, r0
    1e18:	30 5d       	subi	r19, 0xD0	; 208
    1e1a:	31 93       	st	Z+, r19
    1e1c:	de f6       	brtc	.-74     	; 0x1dd4 <__ultoa_invert+0xe>
    1e1e:	cf 01       	movw	r24, r30
    1e20:	08 95       	ret
    1e22:	46 2f       	mov	r20, r22
    1e24:	47 70       	andi	r20, 0x07	; 7
    1e26:	40 5d       	subi	r20, 0xD0	; 208
    1e28:	41 93       	st	Z+, r20
    1e2a:	b3 e0       	ldi	r27, 0x03	; 3
    1e2c:	0f d0       	rcall	.+30     	; 0x1e4c <__ultoa_invert+0x86>
    1e2e:	c9 f7       	brne	.-14     	; 0x1e22 <__ultoa_invert+0x5c>
    1e30:	f6 cf       	rjmp	.-20     	; 0x1e1e <__ultoa_invert+0x58>
    1e32:	46 2f       	mov	r20, r22
    1e34:	4f 70       	andi	r20, 0x0F	; 15
    1e36:	40 5d       	subi	r20, 0xD0	; 208
    1e38:	4a 33       	cpi	r20, 0x3A	; 58
    1e3a:	18 f0       	brcs	.+6      	; 0x1e42 <__ultoa_invert+0x7c>
    1e3c:	49 5d       	subi	r20, 0xD9	; 217
    1e3e:	31 fd       	sbrc	r19, 1
    1e40:	40 52       	subi	r20, 0x20	; 32
    1e42:	41 93       	st	Z+, r20
    1e44:	02 d0       	rcall	.+4      	; 0x1e4a <__ultoa_invert+0x84>
    1e46:	a9 f7       	brne	.-22     	; 0x1e32 <__ultoa_invert+0x6c>
    1e48:	ea cf       	rjmp	.-44     	; 0x1e1e <__ultoa_invert+0x58>
    1e4a:	b4 e0       	ldi	r27, 0x04	; 4
    1e4c:	a6 95       	lsr	r26
    1e4e:	97 95       	ror	r25
    1e50:	87 95       	ror	r24
    1e52:	77 95       	ror	r23
    1e54:	67 95       	ror	r22
    1e56:	ba 95       	dec	r27
    1e58:	c9 f7       	brne	.-14     	; 0x1e4c <__ultoa_invert+0x86>
    1e5a:	00 97       	sbiw	r24, 0x00	; 0
    1e5c:	61 05       	cpc	r22, r1
    1e5e:	71 05       	cpc	r23, r1
    1e60:	08 95       	ret
    1e62:	9b 01       	movw	r18, r22
    1e64:	ac 01       	movw	r20, r24
    1e66:	0a 2e       	mov	r0, r26
    1e68:	06 94       	lsr	r0
    1e6a:	57 95       	ror	r21
    1e6c:	47 95       	ror	r20
    1e6e:	37 95       	ror	r19
    1e70:	27 95       	ror	r18
    1e72:	ba 95       	dec	r27
    1e74:	c9 f7       	brne	.-14     	; 0x1e68 <__ultoa_invert+0xa2>
    1e76:	62 0f       	add	r22, r18
    1e78:	73 1f       	adc	r23, r19
    1e7a:	84 1f       	adc	r24, r20
    1e7c:	95 1f       	adc	r25, r21
    1e7e:	a0 1d       	adc	r26, r0
    1e80:	08 95       	ret

00001e82 <eeprom_read_byte>:
    1e82:	f9 99       	sbic	0x1f, 1	; 31
    1e84:	fe cf       	rjmp	.-4      	; 0x1e82 <eeprom_read_byte>
    1e86:	92 bd       	out	0x22, r25	; 34
    1e88:	81 bd       	out	0x21, r24	; 33
    1e8a:	f8 9a       	sbi	0x1f, 0	; 31
    1e8c:	99 27       	eor	r25, r25
    1e8e:	80 b5       	in	r24, 0x20	; 32
    1e90:	08 95       	ret

00001e92 <eeprom_update_byte>:
    1e92:	26 2f       	mov	r18, r22

00001e94 <eeprom_update_r18>:
    1e94:	f9 99       	sbic	0x1f, 1	; 31
    1e96:	fe cf       	rjmp	.-4      	; 0x1e94 <eeprom_update_r18>
    1e98:	92 bd       	out	0x22, r25	; 34
    1e9a:	81 bd       	out	0x21, r24	; 33
    1e9c:	f8 9a       	sbi	0x1f, 0	; 31
    1e9e:	01 97       	sbiw	r24, 0x01	; 1
    1ea0:	00 b4       	in	r0, 0x20	; 32
    1ea2:	02 16       	cp	r0, r18
    1ea4:	39 f0       	breq	.+14     	; 0x1eb4 <eeprom_update_r18+0x20>
    1ea6:	1f ba       	out	0x1f, r1	; 31
    1ea8:	20 bd       	out	0x20, r18	; 32
    1eaa:	0f b6       	in	r0, 0x3f	; 63
    1eac:	f8 94       	cli
    1eae:	fa 9a       	sbi	0x1f, 2	; 31
    1eb0:	f9 9a       	sbi	0x1f, 1	; 31
    1eb2:	0f be       	out	0x3f, r0	; 63
    1eb4:	08 95       	ret

00001eb6 <__prologue_saves__>:
    1eb6:	2f 92       	push	r2
    1eb8:	3f 92       	push	r3
    1eba:	4f 92       	push	r4
    1ebc:	5f 92       	push	r5
    1ebe:	6f 92       	push	r6
    1ec0:	7f 92       	push	r7
    1ec2:	8f 92       	push	r8
    1ec4:	9f 92       	push	r9
    1ec6:	af 92       	push	r10
    1ec8:	bf 92       	push	r11
    1eca:	cf 92       	push	r12
    1ecc:	df 92       	push	r13
    1ece:	ef 92       	push	r14
    1ed0:	ff 92       	push	r15
    1ed2:	0f 93       	push	r16
    1ed4:	1f 93       	push	r17
    1ed6:	cf 93       	push	r28
    1ed8:	df 93       	push	r29
    1eda:	cd b7       	in	r28, 0x3d	; 61
    1edc:	de b7       	in	r29, 0x3e	; 62
    1ede:	ca 1b       	sub	r28, r26
    1ee0:	db 0b       	sbc	r29, r27
    1ee2:	0f b6       	in	r0, 0x3f	; 63
    1ee4:	f8 94       	cli
    1ee6:	de bf       	out	0x3e, r29	; 62
    1ee8:	0f be       	out	0x3f, r0	; 63
    1eea:	cd bf       	out	0x3d, r28	; 61
    1eec:	09 94       	ijmp

00001eee <__epilogue_restores__>:
    1eee:	2a 88       	ldd	r2, Y+18	; 0x12
    1ef0:	39 88       	ldd	r3, Y+17	; 0x11
    1ef2:	48 88       	ldd	r4, Y+16	; 0x10
    1ef4:	5f 84       	ldd	r5, Y+15	; 0x0f
    1ef6:	6e 84       	ldd	r6, Y+14	; 0x0e
    1ef8:	7d 84       	ldd	r7, Y+13	; 0x0d
    1efa:	8c 84       	ldd	r8, Y+12	; 0x0c
    1efc:	9b 84       	ldd	r9, Y+11	; 0x0b
    1efe:	aa 84       	ldd	r10, Y+10	; 0x0a
    1f00:	b9 84       	ldd	r11, Y+9	; 0x09
    1f02:	c8 84       	ldd	r12, Y+8	; 0x08
    1f04:	df 80       	ldd	r13, Y+7	; 0x07
    1f06:	ee 80       	ldd	r14, Y+6	; 0x06
    1f08:	fd 80       	ldd	r15, Y+5	; 0x05
    1f0a:	0c 81       	ldd	r16, Y+4	; 0x04
    1f0c:	1b 81       	ldd	r17, Y+3	; 0x03
    1f0e:	aa 81       	ldd	r26, Y+2	; 0x02
    1f10:	b9 81       	ldd	r27, Y+1	; 0x01
    1f12:	ce 0f       	add	r28, r30
    1f14:	d1 1d       	adc	r29, r1
    1f16:	0f b6       	in	r0, 0x3f	; 63
    1f18:	f8 94       	cli
    1f1a:	de bf       	out	0x3e, r29	; 62
    1f1c:	0f be       	out	0x3f, r0	; 63
    1f1e:	cd bf       	out	0x3d, r28	; 61
    1f20:	ed 01       	movw	r28, r26
    1f22:	08 95       	ret

00001f24 <_exit>:
    1f24:	f8 94       	cli

00001f26 <__stop_program>:
    1f26:	ff cf       	rjmp	.-2      	; 0x1f26 <__stop_program>
